gpasm-0.13.7 beta               Objects/lena.asm10-26-2013  15:30:39         PAGE  1


LOC  OBJECT CODE     LINE SOURCE TEXT
  VALUE
 
               00001 ;--------------------------------------------------------
               00002 ; File Created by SDCC : free open source ANSI-C Compiler
               00003 ; Version 2.9.4 #5595 (Oct 15 2013) (Mac OS X ppc)
               00004 ; This file was generated Sat Oct 26 15:30:39 2013
               00005 ;--------------------------------------------------------
               00006 ; PIC16 port for the Microchip 16-bit core micros
               00007 ;--------------------------------------------------------
               00008         list    p=18f97j60
               00009 
               00010         radix dec
               00011 
               00012 ;--------------------------------------------------------
               00013 ; public variables in this module
               00014 ;--------------------------------------------------------
               00015         global _inc_ahour
               00016         global _inc_amin
               00017         global _dec_ahour
               00018         global _dec_amin
               00019         global _refresh_lcd
               00020         global _alarm
               00021         global _button
               00022         global _DisplayString
               00023         global _strlcpy
               00024         global _chandelle
               00025         global _overflows
               00026         global _sec
               00027         global _decisec
               00028         global _ds
               00029         global _h
               00030         global _m
               00031         global _s
               00032         global _thour
               00033         global _tmin
               00034         global _tsec
               00035         global _ahour
               00036         global _amin
               00037         global _ahour_o
               00038         global _amin_o
               00039         global _alarm_set
               00040         global _snooze
               00041         global _stop_ringing
               00042         global _whereami
               00043         global _on
               00044         global _button1
               00045         global _button2
               00046         global _display
               00047         global _high_isr
               00048         global _low_isr
               00049         global _main
               00050 
               00051 ;--------------------------------------------------------
               00052 ; extern variables in this module
               00053 ;--------------------------------------------------------
               00054         extern __gptrget1
gpasm-0.13.7 beta               Objects/lena.asm10-26-2013  15:30:39         PAGE  2


LOC  OBJECT CODE     LINE SOURCE TEXT
  VALUE
 
               00055         extern __gptrput1
               00056         extern _EBSTCONbits
               00057         extern _MISTATbits
               00058         extern _EFLOCONbits
               00059         extern _MACON1bits
               00060         extern _MACON2bits
               00061         extern _MACON3bits
               00062         extern _MACON4bits
               00063         extern _MACLCON1bits
               00064         extern _MACLCON2bits
               00065         extern _MICONbits
               00066         extern _MICMDbits
               00067         extern _EWOLIEbits
               00068         extern _EWOLIRbits
               00069         extern _ERXFCONbits
               00070         extern _EIEbits
               00071         extern _ESTATbits
               00072         extern _ECON2bits
               00073         extern _EIRbits
               00074         extern _EDATAbits
               00075         extern _SSP2CON2bits
               00076         extern _SSP2CON1bits
               00077         extern _SSP2STATbits
               00078         extern _ECCP2DELbits
               00079         extern _ECCP2ASbits
               00080         extern _ECCP3DELbits
               00081         extern _ECCP3ASbits
               00082         extern _RCSTA2bits
               00083         extern _TXSTA2bits
               00084         extern _CCP5CONbits
               00085         extern _CCP4CONbits
               00086         extern _T4CONbits
               00087         extern _ECCP1DELbits
               00088         extern _BAUDCON2bits
               00089         extern _BAUDCTL2bits
               00090         extern _BAUDCONbits
               00091         extern _BAUDCON1bits
               00092         extern _BAUDCTLbits
               00093         extern _BAUDCTL1bits
               00094         extern _PORTAbits
               00095         extern _PORTBbits
               00096         extern _PORTCbits
               00097         extern _PORTDbits
               00098         extern _PORTEbits
               00099         extern _PORTFbits
               00100         extern _PORTGbits
               00101         extern _PORTHbits
               00102         extern _PORTJbits
               00103         extern _LATAbits
               00104         extern _LATBbits
               00105         extern _LATCbits
               00106         extern _LATDbits
               00107         extern _LATEbits
               00108         extern _LATFbits
gpasm-0.13.7 beta               Objects/lena.asm10-26-2013  15:30:39         PAGE  3


LOC  OBJECT CODE     LINE SOURCE TEXT
  VALUE
 
               00109         extern _LATGbits
               00110         extern _LATHbits
               00111         extern _LATJbits
               00112         extern _DDRAbits
               00113         extern _TRISAbits
               00114         extern _DDRBbits
               00115         extern _TRISBbits
               00116         extern _DDRCbits
               00117         extern _TRISCbits
               00118         extern _DDRDbits
               00119         extern _TRISDbits
               00120         extern _DDREbits
               00121         extern _TRISEbits
               00122         extern _DDRFbits
               00123         extern _TRISFbits
               00124         extern _DDRGbits
               00125         extern _TRISGbits
               00126         extern _DDRHbits
               00127         extern _TRISHbits
               00128         extern _DDRJbits
               00129         extern _TRISJbits
               00130         extern _OSCTUNEbits
               00131         extern _MEMCONbits
               00132         extern _PIE1bits
               00133         extern _PIR1bits
               00134         extern _IPR1bits
               00135         extern _PIE2bits
               00136         extern _PIR2bits
               00137         extern _IPR2bits
               00138         extern _PIE3bits
               00139         extern _PIR3bits
               00140         extern _IPR3bits
               00141         extern _EECON1bits
               00142         extern _RCSTAbits
               00143         extern _RCSTA1bits
               00144         extern _TXSTAbits
               00145         extern _TXSTA1bits
               00146         extern _PSPCONbits
               00147         extern _T3CONbits
               00148         extern _CMCONbits
               00149         extern _CVRCONbits
               00150         extern _ECCP1ASbits
               00151         extern _CCP3CONbits
               00152         extern _ECCP3CONbits
               00153         extern _CCP2CONbits
               00154         extern _ECCP2CONbits
               00155         extern _CCP1CONbits
               00156         extern _ECCP1CONbits
               00157         extern _ADCON2bits
               00158         extern _ADCON1bits
               00159         extern _ADCON0bits
               00160         extern _SSP1CON2bits
               00161         extern _SSPCON2bits
               00162         extern _SSP1CON1bits
gpasm-0.13.7 beta               Objects/lena.asm10-26-2013  15:30:39         PAGE  4


LOC  OBJECT CODE     LINE SOURCE TEXT
  VALUE
 
               00163         extern _SSPCON1bits
               00164         extern _SSP1STATbits
               00165         extern _SSPSTATbits
               00166         extern _T2CONbits
               00167         extern _T1CONbits
               00168         extern _RCONbits
               00169         extern _WDTCONbits
               00170         extern _ECON1bits
               00171         extern _OSCCONbits
               00172         extern _T0CONbits
               00173         extern _STATUSbits
               00174         extern _INTCON3bits
               00175         extern _INTCON2bits
               00176         extern _INTCONbits
               00177         extern _STKPTRbits
               00178         extern _stdin
               00179         extern _stdout
               00180         extern _LCDText
               00181         extern _MAADR5
               00182         extern _MAADR6
               00183         extern _MAADR3
               00184         extern _MAADR4
               00185         extern _MAADR1
               00186         extern _MAADR2
               00187         extern _EBSTSD
               00188         extern _EBSTCON
               00189         extern _EBSTCS
               00190         extern _EBSTCSL
               00191         extern _EBSTCSH
               00192         extern _MISTAT
               00193         extern _EFLOCON
               00194         extern _EPAUS
               00195         extern _EPAUSL
               00196         extern _EPAUSH
               00197         extern _MACON1
               00198         extern _MACON2
               00199         extern _MACON3
               00200         extern _MACON4
               00201         extern _MABBIPG
               00202         extern _MAIPG
               00203         extern _MAIPGL
               00204         extern _MAIPGH
               00205         extern _MACLCON1
               00206         extern _MACLCON2
               00207         extern _MAMXFL
               00208         extern _MAMXFLL
               00209         extern _MAMXFLH
               00210         extern _MICON
               00211         extern _MICMD
               00212         extern _MIREGADR
               00213         extern _MIWR
               00214         extern _MIWRL
               00215         extern _MIWRH
               00216         extern _MIRD
gpasm-0.13.7 beta               Objects/lena.asm10-26-2013  15:30:39         PAGE  5


LOC  OBJECT CODE     LINE SOURCE TEXT
  VALUE
 
               00217         extern _MIRDL
               00218         extern _MIRDH
               00219         extern _EHT0
               00220         extern _EHT1
               00221         extern _EHT2
               00222         extern _EHT3
               00223         extern _EHT4
               00224         extern _EHT5
               00225         extern _EHT6
               00226         extern _EHT7
               00227         extern _EPMM0
               00228         extern _EPMM1
               00229         extern _EPMM2
               00230         extern _EPMM3
               00231         extern _EPMM4
               00232         extern _EPMM5
               00233         extern _EPMM6
               00234         extern _EPMM7
               00235         extern _EPMCS
               00236         extern _EPMCSL
               00237         extern _EPMCSH
               00238         extern _EPMO
               00239         extern _EPMOL
               00240         extern _EPMOH
               00241         extern _EWOLIE
               00242         extern _EWOLIR
               00243         extern _ERXFCON
               00244         extern _EPKTCNT
               00245         extern _EWRPT
               00246         extern _EWRPTL
               00247         extern _EWRPTH
               00248         extern _ETXST
               00249         extern _ETXSTL
               00250         extern _ETXSTH
               00251         extern _ETXND
               00252         extern _ETXNDL
               00253         extern _ETXNDH
               00254         extern _ERXST
               00255         extern _ERXSTL
               00256         extern _ERXSTH
               00257         extern _ERXND
               00258         extern _ERXNDL
               00259         extern _ERXNDH
               00260         extern _ERXRDPT
               00261         extern _ERXRDPTL
               00262         extern _ERXRDPTH
               00263         extern _ERXWRPT
               00264         extern _ERXWRPTL
               00265         extern _ERXWRPTH
               00266         extern _EDMAST
               00267         extern _EDMASTL
               00268         extern _EDMASTH
               00269         extern _EDMAND
               00270         extern _EDMANDL
gpasm-0.13.7 beta               Objects/lena.asm10-26-2013  15:30:39         PAGE  6


LOC  OBJECT CODE     LINE SOURCE TEXT
  VALUE
 
               00271         extern _EDMANDH
               00272         extern _EDMADST
               00273         extern _EDMADSTL
               00274         extern _EDMADSTH
               00275         extern _EDMACS
               00276         extern _EDMACSL
               00277         extern _EDMACSH
               00278         extern _EIE
               00279         extern _ESTAT
               00280         extern _ECON2
               00281         extern _EIR
               00282         extern _EDATA
               00283         extern _SSP2CON2
               00284         extern _SSP2CON1
               00285         extern _SSP2STAT
               00286         extern _SSP2ADD
               00287         extern _SSP2BUF
               00288         extern _ECCP2DEL
               00289         extern _ECCP2AS
               00290         extern _ECCP3DEL
               00291         extern _ECCP3AS
               00292         extern _RCSTA2
               00293         extern _TXSTA2
               00294         extern _TXREG2
               00295         extern _RCREG2
               00296         extern _SPBRG2
               00297         extern _CCP5CON
               00298         extern _CCPR5
               00299         extern _CCPR5L
               00300         extern _CCPR5H
               00301         extern _CCP4CON
               00302         extern _CCPR4
               00303         extern _CCPR4L
               00304         extern _CCPR4H
               00305         extern _T4CON
               00306         extern _PR4
               00307         extern _TMR4
               00308         extern _ECCP1DEL
               00309         extern _ERDPT
               00310         extern _ERDPTL
               00311         extern _ERDPTH
               00312         extern _BAUDCON2
               00313         extern _BAUDCTL2
               00314         extern _SPBRGH2
               00315         extern _BAUDCON
               00316         extern _BAUDCON1
               00317         extern _BAUDCTL
               00318         extern _BAUDCTL1
               00319         extern _SPBRGH
               00320         extern _SPBRGH1
               00321         extern _PORTA
               00322         extern _PORTB
               00323         extern _PORTC
               00324         extern _PORTD
gpasm-0.13.7 beta               Objects/lena.asm10-26-2013  15:30:39         PAGE  7


LOC  OBJECT CODE     LINE SOURCE TEXT
  VALUE
 
               00325         extern _PORTE
               00326         extern _PORTF
               00327         extern _PORTG
               00328         extern _PORTH
               00329         extern _PORTJ
               00330         extern _LATA
               00331         extern _LATB
               00332         extern _LATC
               00333         extern _LATD
               00334         extern _LATE
               00335         extern _LATF
               00336         extern _LATG
               00337         extern _LATH
               00338         extern _LATJ
               00339         extern _DDRA
               00340         extern _TRISA
               00341         extern _DDRB
               00342         extern _TRISB
               00343         extern _DDRC
               00344         extern _TRISC
               00345         extern _DDRD
               00346         extern _TRISD
               00347         extern _DDRE
               00348         extern _TRISE
               00349         extern _DDRF
               00350         extern _TRISF
               00351         extern _DDRG
               00352         extern _TRISG
               00353         extern _DDRH
               00354         extern _TRISH
               00355         extern _DDRJ
               00356         extern _TRISJ
               00357         extern _OSCTUNE
               00358         extern _MEMCON
               00359         extern _PIE1
               00360         extern _PIR1
               00361         extern _IPR1
               00362         extern _PIE2
               00363         extern _PIR2
               00364         extern _IPR2
               00365         extern _PIE3
               00366         extern _PIR3
               00367         extern _IPR3
               00368         extern _EECON1
               00369         extern _EECON2
               00370         extern _RCSTA
               00371         extern _RCSTA1
               00372         extern _TXSTA
               00373         extern _TXSTA1
               00374         extern _TXREG
               00375         extern _TXREG1
               00376         extern _RCREG
               00377         extern _RCREG1
               00378         extern _SPBRG
gpasm-0.13.7 beta               Objects/lena.asm10-26-2013  15:30:39         PAGE  8


LOC  OBJECT CODE     LINE SOURCE TEXT
  VALUE
 
               00379         extern _SPBRG1
               00380         extern _PSPCON
               00381         extern _T3CON
               00382         extern _TMR3L
               00383         extern _TMR3H
               00384         extern _CMCON
               00385         extern _CVRCON
               00386         extern _ECCP1AS
               00387         extern _CCP3CON
               00388         extern _ECCP3CON
               00389         extern _CCPR3
               00390         extern _CCPR3L
               00391         extern _CCPR3H
               00392         extern _CCP2CON
               00393         extern _ECCP2CON
               00394         extern _CCPR2
               00395         extern _CCPR2L
               00396         extern _CCPR2H
               00397         extern _CCP1CON
               00398         extern _ECCP1CON
               00399         extern _CCPR1
               00400         extern _CCPR1L
               00401         extern _CCPR1H
               00402         extern _ADCON2
               00403         extern _ADCON1
               00404         extern _ADCON0
               00405         extern _ADRES
               00406         extern _ADRESL
               00407         extern _ADRESH
               00408         extern _SSP1CON2
               00409         extern _SSPCON2
               00410         extern _SSP1CON1
               00411         extern _SSPCON1
               00412         extern _SSP1STAT
               00413         extern _SSPSTAT
               00414         extern _SSP1ADD
               00415         extern _SSPADD
               00416         extern _SSP1BUF
               00417         extern _SSPBUF
               00418         extern _T2CON
               00419         extern _PR2
               00420         extern _TMR2
               00421         extern _T1CON
               00422         extern _TMR1L
               00423         extern _TMR1H
               00424         extern _RCON
               00425         extern _WDTCON
               00426         extern _ECON1
               00427         extern _OSCCON
               00428         extern _T0CON
               00429         extern _TMR0L
               00430         extern _TMR0H
               00431         extern _STATUS
               00432         extern _FSR2L
gpasm-0.13.7 beta               Objects/lena.asm10-26-2013  15:30:39         PAGE  9


LOC  OBJECT CODE     LINE SOURCE TEXT
  VALUE
 
               00433         extern _FSR2H
               00434         extern _PLUSW2
               00435         extern _PREINC2
               00436         extern _POSTDEC2
               00437         extern _POSTINC2
               00438         extern _INDF2
               00439         extern _BSR
               00440         extern _FSR1L
               00441         extern _FSR1H
               00442         extern _PLUSW1
               00443         extern _PREINC1
               00444         extern _POSTDEC1
               00445         extern _POSTINC1
               00446         extern _INDF1
               00447         extern _WREG
               00448         extern _FSR0L
               00449         extern _FSR0H
               00450         extern _PLUSW0
               00451         extern _PREINC0
               00452         extern _POSTDEC0
               00453         extern _POSTINC0
               00454         extern _INDF0
               00455         extern _INTCON3
               00456         extern _INTCON2
               00457         extern _INTCON
               00458         extern _PROD
               00459         extern _PRODL
               00460         extern _PRODH
               00461         extern _TABLAT
               00462         extern _TBLPTR
               00463         extern _TBLPTRL
               00464         extern _TBLPTRH
               00465         extern _TBLPTRU
               00466         extern _PC
               00467         extern _PCL
               00468         extern _PCLATH
               00469         extern _PCLATU
               00470         extern _STKPTR
               00471         extern _TOS
               00472         extern _TOSL
               00473         extern _TOSH
               00474         extern _TOSU
               00475         extern _sprintf
               00476         extern _strlen
               00477         extern _LCDInit
               00478         extern _LCDUpdate
               00479         extern __modsint
               00480         extern __divsint
               00481         extern ___ulong2fs
               00482         extern ___fsdiv
               00483         extern ___fs2ulong
               00484         extern __mullong
               00485         extern __modulong
               00486         extern __divulong
gpasm-0.13.7 beta               Objects/lena.asm10-26-2013  15:30:39         PAGE 10


LOC  OBJECT CODE     LINE SOURCE TEXT
  VALUE
 
               00487 ;--------------------------------------------------------
               00488 ;       Equates to used internal registers
               00489 ;--------------------------------------------------------
  00000FD8     00490 STATUS  equ     0xfd8
  00000FF9     00491 PCL     equ     0xff9
  00000FFA     00492 PCLATH  equ     0xffa
  00000FFB     00493 PCLATU  equ     0xffb
  00000FE8     00494 WREG    equ     0xfe8
  00000FE0     00495 BSR     equ     0xfe0
  00000FE9     00496 FSR0L   equ     0xfe9
  00000FEA     00497 FSR0H   equ     0xfea
  00000FE1     00498 FSR1L   equ     0xfe1
  00000FD9     00499 FSR2L   equ     0xfd9
  00000FE5     00500 POSTDEC1        equ     0xfe5
  00000FE4     00501 PREINC1 equ     0xfe4
  00000FDB     00502 PLUSW2  equ     0xfdb
  00000FF3     00503 PRODL   equ     0xff3
  00000FF4     00504 PRODH   equ     0xff4
               00505 
               00506 
               00507         idata
               00508 _chandelle      db      0x01
               00509 _overflows      db      0x00, 0x00, 0x00, 0x00
               00510 _thour  db      0x00
               00511 _tmin   db      0x00
               00512 _tsec   db      0x00
               00513 _ahour  db      0x00
               00514 _amin   db      0x00
               00515 _ahour_o        db      0x00
               00516 _amin_o db      0x00
               00517 _alarm_set      db      0x00
               00518 _snooze db      0x00
               00519 _stop_ringing   db      0x00
               00520 _whereami       db      0x00
               00521 _on     db      0x00
               00522 _button1        db      0x00
               00523 _button2        db      0x00
               00524 
               00525 
               00526 ; Internal registers
               00527 .registers      udata_ovr       0x0000
               00528 r0x00   res     1
               00529 r0x01   res     1
               00530 r0x02   res     1
               00531 r0x03   res     1
               00532 r0x04   res     1
               00533 r0x05   res     1
               00534 r0x06   res     1
               00535 r0x07   res     1
               00536 r0x08   res     1
               00537 r0x09   res     1
               00538 r0x0a   res     1
               00539 r0x0b   res     1
               00540 r0x0c   res     1
gpasm-0.13.7 beta               Objects/lena.asm10-26-2013  15:30:39         PAGE 11


LOC  OBJECT CODE     LINE SOURCE TEXT
  VALUE
 
               00541 r0x0d   res     1
               00542 r0x0e   res     1
               00543 r0x0f   res     1
               00544 r0x10   res     1
               00545 r0x11   res     1
               00546 r0x12   res     1
               00547 r0x13   res     1
               00548 r0x14   res     1
               00549 r0x15   res     1
               00550 
               00551 udata_lena_0    udata
               00552 _sec    res     4
               00553 
               00554 udata_lena_1    udata
               00555 _decisec        res     4
               00556 
               00557 udata_lena_2    udata
               00558 _ds     res     2
               00559 
               00560 udata_lena_3    udata
               00561 _h      res     1
               00562 
               00563 udata_lena_4    udata
               00564 _m      res     1
               00565 
               00566 udata_lena_5    udata
               00567 _s      res     1
               00568 
               00569 udata_lena_6    udata
               00570 _display        res     32
               00571 
               00572 ;--------------------------------------------------------
               00573 ; interrupt vector 
               00574 ;--------------------------------------------------------
               00575 
               00576 ;--------------------------------------------------------
               00577 ; global & static initialisations
               00578 ;--------------------------------------------------------
               00579 ; ; Starting pCode block for absolute section
               00580 ; ;-----------------------------------------
               00581 S_lena_ivec_0x1_high_isr        code    0X000008
0008 00582 ivec_0x1_high_isr:
0008 EF00 F000 00583         GOTO    _high_isr
               00584 
               00585 ; ; Starting pCode block for absolute section
               00586 ; ;-----------------------------------------
               00587 S_lena_ivec_0x2_low_isr code    0X000018
0018 00588 ivec_0x2_low_isr:
0018 EF00 F000 00589         GOTO    _low_isr
               00590 
               00591 ; I code from now on!
               00592 ; ; Starting pCode block
               00593 S_lena__main    code
0000 00594 _main:
gpasm-0.13.7 beta               Objects/lena.asm10-26-2013  15:30:39         PAGE 12


LOC  OBJECT CODE     LINE SOURCE TEXT
  VALUE
 
               00595 ;       .line   133; lena.c     RCONbits.IPEN       = 1; //enable interrupts priority levels
0000 8E00      00596         BSF     _RCONbits, 7
               00597 ;       .line   134; lena.c     INTCONbits.GIE      = 1; //enables all high-priority interrupts
0002 8E00      00598         BSF     _INTCONbits, 7
               00599 ;       .line   135; lena.c     INTCONbits.PEIE     = 1; //enables all low-priority peripheral interrupts
0004 8C00      00600         BSF     _INTCONbits, 6
               00601 ;       .line   138; lena.c     T0CONbits.TMR0ON    = 1; //enables Timer0
0006 8E00      00602         BSF     _T0CONbits, 7
               00603 ;       .line   139; lena.c     INTCONbits.TMR0IE   = 1; //enables the TMR0 overflow interrupt
0008 8A00      00604         BSF     _INTCONbits, 5
               00605 ;       .line   140; lena.c     INTCONbits.TMR0IF   = 0; //clear Timer0 overflow bit
000A 9400      00606         BCF     _INTCONbits, 2
               00607 ;       .line   141; lena.c     INTCON2bits.TMR0IP  = 1; //high priority
000C 8400      00608         BSF     _INTCON2bits, 2
               00609 ;       .line   142; lena.c     T0CONbits.T08BIT    = 0; //timer0 is configured as a 16-bit timer/counter
000E 9C00      00610         BCF     _T0CONbits, 6
               00611 ;       .line   143; lena.c     T0CONbits.T0CS      = 0; //internal instruction cycle clock (CLKO)
0010 9A00      00612         BCF     _T0CONbits, 5
               00613 ;       .line   144; lena.c     T0CONbits.PSA       = 1; //timer0 prescaler is not assigned
0012 8600      00614         BSF     _T0CONbits, 3
               00615 ;       .line   145; lena.c     TMR0L = 0;    TMR0H = 0;
0014 6A00      00616         CLRF    _TMR0L
0016 6A00      00617         CLRF    _TMR0H
               00618 ;       .line   148; lena.c     LED0_TRIS = 0; //configure 1st led pin as output (yellow)
0018 9000      00619         BCF     _TRISJbits, 0
               00620 ;       .line   149; lena.c     LED1_TRIS = 0; //configure 2nd led pin as output (red)
001A 9200      00621         BCF     _TRISJbits, 1
               00622 ;       .line   150; lena.c     LED2_TRIS = 0; //configure 3rd led pin as output (red)
001C 9400      00623         BCF     _TRISJbits, 2
               00624 ;       .line   151; lena.c     LATJbits.LATJ0 = 0; // switch LED 1 off
001E 9000      00625         BCF     _LATJbits, 0
               00626 ;       .line   152; lena.c     LATJbits.LATJ1 = 0; // switch LED 2 off
0020 9200      00627         BCF     _LATJbits, 1
               00628 ;       .line   153; lena.c     LATJbits.LATJ2 = 0; // switch LED 3 off
0022 9400      00629         BCF     _LATJbits, 2
               00630 ;       .line   156; lena.c     BUTTON0_TRIS        = 1; //configure 1st button as input
0024 8600      00631         BSF     _TRISBbits, 3
               00632 ;       .line   157; lena.c     BUTTON1_TRIS        = 1; //configure 2nd button as input
0026 8200      00633         BSF     _TRISBbits, 1
               00634 ;       .line   158; lena.c     INTCON3bits.INT3E   = 1; //enable INT3 interrupt (button 1)
0028 8A00      00635         BSF     _INTCON3bits, 5
               00636 ;       .line   159; lena.c     INTCON3bits.INT3F   = 0; //clear INT3 flag
002A 9400      00637         BCF     _INTCON3bits, 2
               00638 ;       .line   160; lena.c     INTCON3bits.INT1E   = 1; //enable INT1 interrupt (button 2)
002C 8600      00639         BSF     _INTCON3bits, 3
               00640 ;       .line   161; lena.c     INTCON3bits.INT1F   = 0; //clear INT1 flag
002E 9000      00641         BCF     _INTCON3bits, 0
               00642 ;       .line   162; lena.c     INTCON3bits.INT1IP  = 0; //low priority
0030 9C00      00643         BCF     _INTCON3bits, 6
               00644 ;       .line   163; lena.c     INTCON2bits.INT3IP  = 0; //low priority
0032 9200      00645         BCF     _INTCON2bits, 1
               00646 ;       .line   167; lena.c     LCDInit();
0034 EC00 F000 00647         CALL    _LCDInit
               00648 ;       .line   168; lena.c     whereami = TIME_MENU;
gpasm-0.13.7 beta               Objects/lena.asm10-26-2013  15:30:39         PAGE 13


LOC  OBJECT CODE     LINE SOURCE TEXT
  VALUE
 
0038 0E01      00649         MOVLW   0x01
003A 0000      00650         BANKSEL _whereami
003C 6F00      00651         MOVWF   _whereami, B
003E 0000      00652         BANKSEL _chandelle
               00653 ;       .line   170; lena.c     chandelle++; // ##### BIZARRE ####
0040 2B00      00654         INCF    _chandelle, F, B
               00655 ;       .line   172; lena.c     T0CONbits.TMR0ON = 1; // start timer0
0042 8E00      00656         BSF     _T0CONbits, 7
0044 00657 _00123_DS_:
               00658 ;       .line   174; lena.c     refresh_lcd();
0044 EC00 F000 00659         CALL    _refresh_lcd
               00660 ;       .line   175; lena.c     alarm();
0048 EC00 F000 00661         CALL    _alarm
               00662 ;       .line   176; lena.c     button();
004C EC00 F000 00663         CALL    _button
0050 D000      00664         BRA     _00123_DS_
0052 0012      00665         RETURN  
               00666 
               00667 ; ; Starting pCode block
               00668 S_lena__strlcpy code
0000 00669 _strlcpy:
               00670 ;       .line   542; lena.c     strlcpy(char *dst, const char *src, size_t siz)
0000 CFD9 FFE5 00671         MOVFF   FSR2L, POSTDEC1
0004 CFE1 FFD9 00672         MOVFF   FSR1L, FSR2L
0008 C000 FFE5 00673         MOVFF   r0x00, POSTDEC1
000C C000 FFE5 00674         MOVFF   r0x01, POSTDEC1
0010 C000 FFE5 00675         MOVFF   r0x02, POSTDEC1
0014 C000 FFE5 00676         MOVFF   r0x03, POSTDEC1
0018 C000 FFE5 00677         MOVFF   r0x04, POSTDEC1
001C C000 FFE5 00678         MOVFF   r0x05, POSTDEC1
0020 C000 FFE5 00679         MOVFF   r0x06, POSTDEC1
0024 C000 FFE5 00680         MOVFF   r0x07, POSTDEC1
0028 C000 FFE5 00681         MOVFF   r0x08, POSTDEC1
002C C000 FFE5 00682         MOVFF   r0x09, POSTDEC1
0030 C000 FFE5 00683         MOVFF   r0x0a, POSTDEC1
0034 C000 FFE5 00684         MOVFF   r0x0b, POSTDEC1
0038 C000 FFE5 00685         MOVFF   r0x0c, POSTDEC1
003C C000 FFE5 00686         MOVFF   r0x0d, POSTDEC1
0040 C000 FFE5 00687         MOVFF   r0x0e, POSTDEC1
0044 C000 FFE5 00688         MOVFF   r0x0f, POSTDEC1
0048 C000 FFE5 00689         MOVFF   r0x10, POSTDEC1
004C C000 FFE5 00690         MOVFF   r0x11, POSTDEC1
0050 C000 FFE5 00691         MOVFF   r0x12, POSTDEC1
0054 C000 FFE5 00692         MOVFF   r0x13, POSTDEC1
0058 C000 FFE5 00693         MOVFF   r0x14, POSTDEC1
005C C000 FFE5 00694         MOVFF   r0x15, POSTDEC1
0060 0E02      00695         MOVLW   0x02
0062 CFDB F000 00696         MOVFF   PLUSW2, r0x00
0066 0E03      00697         MOVLW   0x03
0068 CFDB F000 00698         MOVFF   PLUSW2, r0x01
006C 0E04      00699         MOVLW   0x04
006E CFDB F000 00700         MOVFF   PLUSW2, r0x02
0072 0E05      00701         MOVLW   0x05
0074 CFDB F000 00702         MOVFF   PLUSW2, r0x03
gpasm-0.13.7 beta               Objects/lena.asm10-26-2013  15:30:39         PAGE 14


LOC  OBJECT CODE     LINE SOURCE TEXT
  VALUE
 
0078 0E06      00703         MOVLW   0x06
007A CFDB F000 00704         MOVFF   PLUSW2, r0x04
007E 0E07      00705         MOVLW   0x07
0080 CFDB F000 00706         MOVFF   PLUSW2, r0x05
0084 0E08      00707         MOVLW   0x08
0086 CFDB F000 00708         MOVFF   PLUSW2, r0x06
008A 0E09      00709         MOVLW   0x09
008C CFDB F000 00710         MOVFF   PLUSW2, r0x07
               00711 ;       .line   544; lena.c     char       *d = dst;
0090 C000 F000 00712         MOVFF   r0x00, r0x08
0094 C000 F000 00713         MOVFF   r0x01, r0x09
0098 C000 F000 00714         MOVFF   r0x02, r0x0a
               00715 ;       .line   545; lena.c     const char *s = src;
009C C000 F000 00716         MOVFF   r0x03, r0x0b
00A0 C000 F000 00717         MOVFF   r0x04, r0x0c
00A4 C000 F000 00718         MOVFF   r0x05, r0x0d
               00719 ;       .line   546; lena.c     size_t      n = siz;
00A8 C000 F000 00720         MOVFF   r0x06, r0x0e
00AC C000 F000 00721         MOVFF   r0x07, r0x0f
               00722 ;       .line   549; lena.c     if (n != 0)
00B0 5000      00723         MOVF    r0x06, W
00B2 1000      00724         IORWF   r0x07, W
00B4 B4D8      00725         BTFSC   STATUS, 2
00B6 D000      00726         BRA     _00392_DS_
               00727 ;       .line   551; lena.c     while (--n != 0)
00B8 C000 F000 00728         MOVFF   r0x03, r0x10
00BC C000 F000 00729         MOVFF   r0x04, r0x11
00C0 C000 F000 00730         MOVFF   r0x05, r0x12
00C4 C000 F000 00731         MOVFF   r0x06, r0x13
00C8 C000 F000 00732         MOVFF   r0x07, r0x14
00CC 00733 _00388_DS_:
00CC 0EFF      00734         MOVLW   0xff
00CE 2600      00735         ADDWF   r0x13, F
00D0 A0D8      00736         BTFSS   STATUS, 0
00D2 0600      00737         DECF    r0x14, F
00D4 5000      00738         MOVF    r0x13, W
00D6 1000      00739         IORWF   r0x14, W
00D8 E000      00740         BZ      _00407_DS_
               00741 ;       .line   553; lena.c     if ((*d++ = *s++) == '\0')
00DA C000 FFE9 00742         MOVFF   r0x10, FSR0L
00DE C000 FFF3 00743         MOVFF   r0x11, PRODL
00E2 5000      00744         MOVF    r0x12, W
00E4 EC00 F000 00745         CALL    __gptrget1
00E8 6E00      00746         MOVWF   r0x15
00EA 2A00      00747         INCF    r0x10, F
00EC B0D8      00748         BTFSC   STATUS, 0
00EE 2A00      00749         INCF    r0x11, F
00F0 B0D8      00750         BTFSC   STATUS, 0
00F2 2A00      00751         INCF    r0x12, F
00F4 C000 FFE5 00752         MOVFF   r0x15, POSTDEC1
00F8 C000 FFE9 00753         MOVFF   r0x00, FSR0L
00FC C000 FFF3 00754         MOVFF   r0x01, PRODL
0100 5000      00755         MOVF    r0x02, W
0102 EC00 F000 00756         CALL    __gptrput1
gpasm-0.13.7 beta               Objects/lena.asm10-26-2013  15:30:39         PAGE 15


LOC  OBJECT CODE     LINE SOURCE TEXT
  VALUE
 
0106 2A00      00757         INCF    r0x00, F
0108 B0D8      00758         BTFSC   STATUS, 0
010A 2A00      00759         INCF    r0x01, F
010C B0D8      00760         BTFSC   STATUS, 0
010E 2A00      00761         INCF    r0x02, F
0110 5000      00762         MOVF    r0x15, W
0112 E100      00763         BNZ     _00388_DS_
0114 00764 _00407_DS_:
               00765 ;       .line   554; lena.c     break;
0114 C000 F000 00766         MOVFF   r0x10, r0x0b
0118 C000 F000 00767         MOVFF   r0x11, r0x0c
011C C000 F000 00768         MOVFF   r0x12, r0x0d
0120 C000 F000 00769         MOVFF   r0x00, r0x08
0124 C000 F000 00770         MOVFF   r0x01, r0x09
0128 C000 F000 00771         MOVFF   r0x02, r0x0a
012C C000 F000 00772         MOVFF   r0x13, r0x0e
0130 C000 F000 00773         MOVFF   r0x14, r0x0f
0134 00774 _00392_DS_:
               00775 ;       .line   559; lena.c     if (n == 0)
0134 5000      00776         MOVF    r0x0e, W
0136 1000      00777         IORWF   r0x0f, W
0138 E100      00778         BNZ     _00399_DS_
               00779 ;       .line   561; lena.c     if (siz != 0)
013A 5000      00780         MOVF    r0x06, W
013C 1000      00781         IORWF   r0x07, W
013E E000      00782         BZ      _00406_DS_
               00783 ;       .line   562; lena.c     *d = '\0';          /* NUL-terminate dst */
0140 0E00      00784         MOVLW   0x00
0142 6EE5      00785         MOVWF   POSTDEC1
0144 C000 FFE9 00786         MOVFF   r0x08, FSR0L
0148 C000 FFF3 00787         MOVFF   r0x09, PRODL
014C 5000      00788         MOVF    r0x0a, W
014E EC00 F000 00789         CALL    __gptrput1
0152 00790 _00406_DS_:
               00791 ;       .line   563; lena.c     while (*s++)
0152 C000 F000 00792         MOVFF   r0x0b, r0x00
0156 C000 F000 00793         MOVFF   r0x0c, r0x01
015A C000 F000 00794         MOVFF   r0x0d, r0x02
015E 00795 _00395_DS_:
015E C000 FFE9 00796         MOVFF   r0x00, FSR0L
0162 C000 FFF3 00797         MOVFF   r0x01, PRODL
0166 5000      00798         MOVF    r0x02, W
0168 EC00 F000 00799         CALL    __gptrget1
016C 6E00      00800         MOVWF   r0x06
016E 2A00      00801         INCF    r0x00, F
0170 B0D8      00802         BTFSC   STATUS, 0
0172 2A00      00803         INCF    r0x01, F
0174 B0D8      00804         BTFSC   STATUS, 0
0176 2A00      00805         INCF    r0x02, F
0178 5000      00806         MOVF    r0x06, W
017A E100      00807         BNZ     _00395_DS_
017C C000 F000 00808         MOVFF   r0x00, r0x0b
0180 C000 F000 00809         MOVFF   r0x01, r0x0c
0184 C000 F000 00810         MOVFF   r0x02, r0x0d
gpasm-0.13.7 beta               Objects/lena.asm10-26-2013  15:30:39         PAGE 16


LOC  OBJECT CODE     LINE SOURCE TEXT
  VALUE
 
0188 00811 _00399_DS_:
               00812 ;       .line   569; lena.c     return (s - src - 1);       /* count does not include NUL */
0188 5000      00813         MOVF    r0x03, W
018A 5C00      00814         SUBWF   r0x0b, W
018C 6E00      00815         MOVWF   r0x03
018E 5000      00816         MOVF    r0x04, W
0190 5800      00817         SUBWFB  r0x0c, W
0192 6E00      00818         MOVWF   r0x04
0194 0EFF      00819         MOVLW   0xff
0196 2600      00820         ADDWF   r0x03, F
0198 A0D8      00821         BTFSS   STATUS, 0
019A 0600      00822         DECF    r0x04, F
019C C000 FFF3 00823         MOVFF   r0x04, PRODL
01A0 5000      00824         MOVF    r0x03, W
01A2 CFE4 F000 00825         MOVFF   PREINC1, r0x15
01A6 CFE4 F000 00826         MOVFF   PREINC1, r0x14
01AA CFE4 F000 00827         MOVFF   PREINC1, r0x13
01AE CFE4 F000 00828         MOVFF   PREINC1, r0x12
01B2 CFE4 F000 00829         MOVFF   PREINC1, r0x11
01B6 CFE4 F000 00830         MOVFF   PREINC1, r0x10
01BA CFE4 F000 00831         MOVFF   PREINC1, r0x0f
01BE CFE4 F000 00832         MOVFF   PREINC1, r0x0e
01C2 CFE4 F000 00833         MOVFF   PREINC1, r0x0d
01C6 CFE4 F000 00834         MOVFF   PREINC1, r0x0c
01CA CFE4 F000 00835         MOVFF   PREINC1, r0x0b
01CE CFE4 F000 00836         MOVFF   PREINC1, r0x0a
01D2 CFE4 F000 00837         MOVFF   PREINC1, r0x09
01D6 CFE4 F000 00838         MOVFF   PREINC1, r0x08
01DA CFE4 F000 00839         MOVFF   PREINC1, r0x07
01DE CFE4 F000 00840         MOVFF   PREINC1, r0x06
01E2 CFE4 F000 00841         MOVFF   PREINC1, r0x05
01E6 CFE4 F000 00842         MOVFF   PREINC1, r0x04
01EA CFE4 F000 00843         MOVFF   PREINC1, r0x03
01EE CFE4 F000 00844         MOVFF   PREINC1, r0x02
01F2 CFE4 F000 00845         MOVFF   PREINC1, r0x01
01F6 CFE4 F000 00846         MOVFF   PREINC1, r0x00
01FA CFE4 FFD9 00847         MOVFF   PREINC1, FSR2L
01FE 0012      00848         RETURN  
               00849 
               00850 ; ; Starting pCode block
               00851 S_lena__DisplayString   code
0000 00852 _DisplayString:
               00853 ;       .line   496; lena.c     void DisplayString(BYTE pos, char* text)
0000 CFD9 FFE5 00854         MOVFF   FSR2L, POSTDEC1
0004 CFE1 FFD9 00855         MOVFF   FSR1L, FSR2L
0008 C000 FFE5 00856         MOVFF   r0x00, POSTDEC1
000C C000 FFE5 00857         MOVFF   r0x01, POSTDEC1
0010 C000 FFE5 00858         MOVFF   r0x02, POSTDEC1
0014 C000 FFE5 00859         MOVFF   r0x03, POSTDEC1
0018 C000 FFE5 00860         MOVFF   r0x04, POSTDEC1
001C C000 FFE5 00861         MOVFF   r0x05, POSTDEC1
0020 C000 FFE5 00862         MOVFF   r0x06, POSTDEC1
0024 C000 FFE5 00863         MOVFF   r0x07, POSTDEC1
0028 0E02      00864         MOVLW   0x02
gpasm-0.13.7 beta               Objects/lena.asm10-26-2013  15:30:39         PAGE 17


LOC  OBJECT CODE     LINE SOURCE TEXT
  VALUE
 
002A CFDB F000 00865         MOVFF   PLUSW2, r0x00
002E 0E03      00866         MOVLW   0x03
0030 CFDB F000 00867         MOVFF   PLUSW2, r0x01
0034 0E04      00868         MOVLW   0x04
0036 CFDB F000 00869         MOVFF   PLUSW2, r0x02
003A 0E05      00870         MOVLW   0x05
003C CFDB F000 00871         MOVFF   PLUSW2, r0x03
               00872 ;       .line   498; lena.c     BYTE l= strlen(text)+1;
0040 5000      00873         MOVF    r0x03, W
0042 6EE5      00874         MOVWF   POSTDEC1
0044 5000      00875         MOVF    r0x02, W
0046 6EE5      00876         MOVWF   POSTDEC1
0048 5000      00877         MOVF    r0x01, W
004A 6EE5      00878         MOVWF   POSTDEC1
004C EC00 F000 00879         CALL    _strlen
0050 6E00      00880         MOVWF   r0x04
0052 CFF3 F000 00881         MOVFF   PRODL, r0x05
0056 0E03      00882         MOVLW   0x03
0058 26E1      00883         ADDWF   FSR1L, F
005A 2A00      00884         INCF    r0x04, F
               00885 ;       .line   499; lena.c     BYTE max= 32-pos;
005C 5000      00886         MOVF    r0x00, W
005E 0820      00887         SUBLW   0x20
0060 6E00      00888         MOVWF   r0x05
               00889 ;       .line   500; lena.c     strlcpy((char*)&LCDText[pos], text,(l<max)?l:max );
0062 6A00      00890         CLRF    r0x06
0064 0E00      00891         MOVLW   LOW(_LCDText)
0066 2600      00892         ADDWF   r0x00, F
0068 0E00      00893         MOVLW   HIGH(_LCDText)
006A 2200      00894         ADDWFC  r0x06, F
006C 5000      00895         MOVF    r0x06, W
006E 6E00      00896         MOVWF   r0x06
0070 5000      00897         MOVF    r0x00, W
0072 6E00      00898         MOVWF   r0x00
0074 0E80      00899         MOVLW   0x80
0076 6E00      00900         MOVWF   r0x07
0078 5000      00901         MOVF    r0x05, W
007A 5C00      00902         SUBWF   r0x04, W
007C E300      00903         BNC     _00379_DS_
007E C000 F000 00904         MOVFF   r0x05, r0x04
0082 00905 _00379_DS_:
0082 6A00      00906         CLRF    r0x05
0084 5000      00907         MOVF    r0x05, W
0086 6EE5      00908         MOVWF   POSTDEC1
0088 5000      00909         MOVF    r0x04, W
008A 6EE5      00910         MOVWF   POSTDEC1
008C 5000      00911         MOVF    r0x03, W
008E 6EE5      00912         MOVWF   POSTDEC1
0090 5000      00913         MOVF    r0x02, W
0092 6EE5      00914         MOVWF   POSTDEC1
0094 5000      00915         MOVF    r0x01, W
0096 6EE5      00916         MOVWF   POSTDEC1
0098 5000      00917         MOVF    r0x07, W
009A 6EE5      00918         MOVWF   POSTDEC1
gpasm-0.13.7 beta               Objects/lena.asm10-26-2013  15:30:39         PAGE 18


LOC  OBJECT CODE     LINE SOURCE TEXT
  VALUE
 
009C 5000      00919         MOVF    r0x06, W
009E 6EE5      00920         MOVWF   POSTDEC1
00A0 5000      00921         MOVF    r0x00, W
00A2 6EE5      00922         MOVWF   POSTDEC1
00A4 EC00 F000 00923         CALL    _strlcpy
00A8 0E08      00924         MOVLW   0x08
00AA 26E1      00925         ADDWF   FSR1L, F
               00926 ;       .line   501; lena.c     LCDUpdate();
00AC EC00 F000 00927         CALL    _LCDUpdate
00B0 CFE4 F000 00928         MOVFF   PREINC1, r0x07
00B4 CFE4 F000 00929         MOVFF   PREINC1, r0x06
00B8 CFE4 F000 00930         MOVFF   PREINC1, r0x05
00BC CFE4 F000 00931         MOVFF   PREINC1, r0x04
00C0 CFE4 F000 00932         MOVFF   PREINC1, r0x03
00C4 CFE4 F000 00933         MOVFF   PREINC1, r0x02
00C8 CFE4 F000 00934         MOVFF   PREINC1, r0x01
00CC CFE4 F000 00935         MOVFF   PREINC1, r0x00
00D0 CFE4 FFD9 00936         MOVFF   PREINC1, FSR2L
00D4 0012      00937         RETURN  
               00938 
               00939 ; ; Starting pCode block
               00940 S_lena__button  code
0000 00941 _button:
               00942 ;       .line   361; lena.c     void button(void)
0000 CFD9 FFE5 00943         MOVFF   FSR2L, POSTDEC1
0004 CFE1 FFD9 00944         MOVFF   FSR1L, FSR2L
0008 C000 FFE5 00945         MOVFF   r0x00, POSTDEC1
000C 0000      00946         BANKSEL _button1
               00947 ;       .line   364; lena.c     if (button1) {
000E 5100      00948         MOVF    _button1, W, B
0010 B4D8      00949         BTFSC   STATUS, 2
0012 D000      00950         BRA     _00336_DS_
               00951 ;       .line   365; lena.c     switch (whereami) {
0014 0E01      00952         MOVLW   0x01
0016 0000      00953         BANKSEL _whereami
0018 5D00      00954         SUBWF   _whereami, W, B
001A A0D8      00955         BTFSS   STATUS, 0
001C D000      00956         BRA     _00301_DS_
001E 0E0C      00957         MOVLW   0x0c
0020 0000      00958         BANKSEL _whereami
0022 5D00      00959         SUBWF   _whereami, W, B
0024 B0D8      00960         BTFSC   STATUS, 0
0026 D000      00961         BRA     _00301_DS_
0028 0000      00962         BANKSEL _whereami
002A 0500      00963         DECF    _whereami, W, B
002C 6E00      00964         MOVWF   r0x00
002E C000 FFE5 00965         MOVFF   r0x01, POSTDEC1
0032 C000 FFE5 00966         MOVFF   r0x02, POSTDEC1
0036 6A00      00967         CLRF    r0x02
0038 3400      00968         RLCF    r0x00, W
003A 3600      00969         RLCF    r0x02, F
003C 34E8      00970         RLCF    WREG, W
003E 3600      00971         RLCF    r0x02, F
0040 0BFC      00972         ANDLW   0xfc
gpasm-0.13.7 beta               Objects/lena.asm10-26-2013  15:30:39         PAGE 19


LOC  OBJECT CODE     LINE SOURCE TEXT
  VALUE
 
0042 6E00      00973         MOVWF   r0x01
0044 0E00      00974         MOVLW   UPPER(_00355_DS_)
0046 6EFB      00975         MOVWF   PCLATU
0048 0E00      00976         MOVLW   HIGH(_00355_DS_)
004A 6EFA      00977         MOVWF   PCLATH
004C 0E00      00978         MOVLW   LOW(_00355_DS_)
004E 2600      00979         ADDWF   r0x01, F
0050 5000      00980         MOVF    r0x02, W
0052 22FA      00981         ADDWFC  PCLATH, F
0054 B0D8      00982         BTFSC   STATUS, 0
0056 2AFB      00983         INCF    PCLATU, F
0058 5000      00984         MOVF    r0x01, W
005A CFE4 F000 00985         MOVFF   PREINC1, r0x02
005E CFE4 F000 00986         MOVFF   PREINC1, r0x01
0062 6EF9      00987         MOVWF   PCL
0064 00988 _00355_DS_:
0064 EF00 F000 00989         GOTO    _00289_DS_
0068 EF00 F000 00990         GOTO    _00290_DS_
006C EF00 F000 00991         GOTO    _00291_DS_
0070 EF00 F000 00992         GOTO    _00292_DS_
0074 EF00 F000 00993         GOTO    _00293_DS_
0078 EF00 F000 00994         GOTO    _00294_DS_
007C EF00 F000 00995         GOTO    _00295_DS_
0080 EF00 F000 00996         GOTO    _00296_DS_
0084 EF00 F000 00997         GOTO    _00297_DS_
0088 EF00 F000 00998         GOTO    _00298_DS_
008C EF00 F000 00999         GOTO    _00299_DS_
0090 01000 _00289_DS_:
               01001 ;       .line   367; lena.c     whereami = ALARM_MENU;
0090 0E05      01002         MOVLW   0x05
0092 0000      01003         BANKSEL _whereami
0094 6F00      01004         MOVWF   _whereami, B
               01005 ;       .line   368; lena.c     break;
0096 D000      01006         BRA     _00301_DS_
0098 01007 _00290_DS_:
               01008 ;       .line   370; lena.c     whereami = SET_MINUTE;
0098 0E03      01009         MOVLW   0x03
009A 0000      01010         BANKSEL _whereami
009C 6F00      01011         MOVWF   _whereami, B
               01012 ;       .line   371; lena.c     break;
009E D000      01013         BRA     _00301_DS_
00A0 01014 _00291_DS_:
               01015 ;       .line   373; lena.c     whereami = SET_SECOND;
00A0 0E04      01016         MOVLW   0x04
00A2 0000      01017         BANKSEL _whereami
00A4 6F00      01018         MOVWF   _whereami, B
               01019 ;       .line   374; lena.c     break;
00A6 D000      01020         BRA     _00301_DS_
00A8 01021 _00292_DS_:
               01022 ;       .line   376; lena.c     whereami = ALARM_MENU;
00A8 0E05      01023         MOVLW   0x05
00AA 0000      01024         BANKSEL _whereami
00AC 6F00      01025         MOVWF   _whereami, B
               01026 ;       .line   377; lena.c     break;
gpasm-0.13.7 beta               Objects/lena.asm10-26-2013  15:30:39         PAGE 20


LOC  OBJECT CODE     LINE SOURCE TEXT
  VALUE
 
00AE D000      01027         BRA     _00301_DS_
00B0 01028 _00293_DS_:
               01029 ;       .line   379; lena.c     whereami = DISPLAY;
00B0 0E09      01030         MOVLW   0x09
00B2 0000      01031         BANKSEL _whereami
00B4 6F00      01032         MOVWF   _whereami, B
               01033 ;       .line   380; lena.c     break;
00B6 D000      01034         BRA     _00301_DS_
00B8 01035 _00294_DS_:
               01036 ;       .line   382; lena.c     whereami = SET_A_HOUR;
00B8 0E07      01037         MOVLW   0x07
00BA 0000      01038         BANKSEL _whereami
00BC 6F00      01039         MOVWF   _whereami, B
               01040 ;       .line   383; lena.c     break;
00BE D000      01041         BRA     _00301_DS_
00C0 01042 _00295_DS_:
               01043 ;       .line   385; lena.c     whereami = SET_A_MIN;
00C0 0E08      01044         MOVLW   0x08
00C2 0000      01045         BANKSEL _whereami
00C4 6F00      01046         MOVWF   _whereami, B
               01047 ;       .line   386; lena.c     break;
00C6 D000      01048         BRA     _00301_DS_
00C8 01049 _00296_DS_:
               01050 ;       .line   388; lena.c     whereami = DISPLAY;
00C8 0E09      01051         MOVLW   0x09
00CA 0000      01052         BANKSEL _whereami
00CC 6F00      01053         MOVWF   _whereami, B
               01054 ;       .line   389; lena.c     break;
00CE D000      01055         BRA     _00301_DS_
00D0 01056 _00297_DS_:
               01057 ;       .line   391; lena.c     whereami = TIME_MENU;
00D0 0E01      01058         MOVLW   0x01
00D2 0000      01059         BANKSEL _whereami
00D4 6F00      01060         MOVWF   _whereami, B
               01061 ;       .line   392; lena.c     break;
00D6 D000      01062         BRA     _00301_DS_
00D8 01063 _00298_DS_:
               01064 ;       .line   394; lena.c     stop_ringing = 1;
00D8 0E01      01065         MOVLW   0x01
00DA 0000      01066         BANKSEL _stop_ringing
00DC 6F00      01067         MOVWF   _stop_ringing, B
               01068 ;       .line   395; lena.c     LATJbits.LATJ1 = 0; // switch LED 2 off
00DE 9200      01069         BCF     _LATJbits, 1
               01070 ;       .line   396; lena.c     LATJbits.LATJ2 = 0; // switch LED 3 off
00E0 9400      01071         BCF     _LATJbits, 2
               01072 ;       .line   397; lena.c     whereami = DISPLAY;
00E2 0E09      01073         MOVLW   0x09
00E4 0000      01074         BANKSEL _whereami
00E6 6F00      01075         MOVWF   _whereami, B
               01076 ;       .line   398; lena.c     break;
00E8 D000      01077         BRA     _00301_DS_
00EA 01078 _00299_DS_:
               01079 ;       .line   400; lena.c     amin = amin_o; // remet le rveil
00EA C000 F000 01080         MOVFF   _amin_o, _amin
gpasm-0.13.7 beta               Objects/lena.asm10-26-2013  15:30:39         PAGE 21


LOC  OBJECT CODE     LINE SOURCE TEXT
  VALUE
 
               01081 ;       .line   401; lena.c     ahour = ahour_o;
00EE C000 F000 01082         MOVFF   _ahour_o, _ahour
00F2 0000      01083         BANKSEL _snooze
               01084 ;       .line   402; lena.c     snooze = 0;
00F4 6B00      01085         CLRF    _snooze, B
00F6 0000      01086         BANKSEL _stop_ringing
               01087 ;       .line   403; lena.c     stop_ringing = 0; // le rveil doit sonner  nouveau 
00F8 6B00      01088         CLRF    _stop_ringing, B
               01089 ;       .line   404; lena.c     LATJbits.LATJ1 = 0; // switch LED 2 off
00FA 9200      01090         BCF     _LATJbits, 1
               01091 ;       .line   405; lena.c     LATJbits.LATJ2 = 0; // switch LED 3 off
00FC 9400      01092         BCF     _LATJbits, 2
               01093 ;       .line   406; lena.c     whereami = DISPLAY;
00FE 0E09      01094         MOVLW   0x09
0100 0000      01095         BANKSEL _whereami
0102 6F00      01096         MOVWF   _whereami, B
0104 01097 _00301_DS_:
0104 0000      01098         BANKSEL _button1
               01099 ;       .line   411; lena.c     button1 = 0; // remet le flag du boutton 1  0
0106 6B00      01100         CLRF    _button1, B
0108 D000      01101         BRA     _00338_DS_
010A 01102 _00336_DS_:
010A 0000      01103         BANKSEL _button2
               01104 ;       .line   414; lena.c     } else if (button2) {
010C 5100      01105         MOVF    _button2, W, B
010E B4D8      01106         BTFSC   STATUS, 2
0110 D000      01107         BRA     _00338_DS_
               01108 ;       .line   415; lena.c     switch (whereami) {
0112 0E01      01109         MOVLW   0x01
0114 0000      01110         BANKSEL _whereami
0116 5D00      01111         SUBWF   _whereami, W, B
0118 A0D8      01112         BTFSS   STATUS, 0
011A D000      01113         BRA     _00332_DS_
011C 0E0C      01114         MOVLW   0x0c
011E 0000      01115         BANKSEL _whereami
0120 5D00      01116         SUBWF   _whereami, W, B
0122 B0D8      01117         BTFSC   STATUS, 0
0124 D000      01118         BRA     _00332_DS_
0126 0000      01119         BANKSEL _whereami
0128 0500      01120         DECF    _whereami, W, B
012A 6E00      01121         MOVWF   r0x00
012C C000 FFE5 01122         MOVFF   r0x01, POSTDEC1
0130 C000 FFE5 01123         MOVFF   r0x02, POSTDEC1
0134 6A00      01124         CLRF    r0x02
0136 3400      01125         RLCF    r0x00, W
0138 3600      01126         RLCF    r0x02, F
013A 34E8      01127         RLCF    WREG, W
013C 3600      01128         RLCF    r0x02, F
013E 0BFC      01129         ANDLW   0xfc
0140 6E00      01130         MOVWF   r0x01
0142 0E00      01131         MOVLW   UPPER(_00358_DS_)
0144 6EFB      01132         MOVWF   PCLATU
0146 0E00      01133         MOVLW   HIGH(_00358_DS_)
0148 6EFA      01134         MOVWF   PCLATH
gpasm-0.13.7 beta               Objects/lena.asm10-26-2013  15:30:39         PAGE 22


LOC  OBJECT CODE     LINE SOURCE TEXT
  VALUE
 
014A 0E00      01135         MOVLW   LOW(_00358_DS_)
014C 2600      01136         ADDWF   r0x01, F
014E 5000      01137         MOVF    r0x02, W
0150 22FA      01138         ADDWFC  PCLATH, F
0152 B0D8      01139         BTFSC   STATUS, 0
0154 2AFB      01140         INCF    PCLATU, F
0156 5000      01141         MOVF    r0x01, W
0158 CFE4 F000 01142         MOVFF   PREINC1, r0x02
015C CFE4 F000 01143         MOVFF   PREINC1, r0x01
0160 6EF9      01144         MOVWF   PCL
0162 01145 _00358_DS_:
0162 EF00 F000 01146         GOTO    _00302_DS_
0166 EF00 F000 01147         GOTO    _00303_DS_
016A EF00 F000 01148         GOTO    _00306_DS_
016E EF00 F000 01149         GOTO    _00310_DS_
0172 EF00 F000 01150         GOTO    _00314_DS_
0176 EF00 F000 01151         GOTO    _00315_DS_
017A EF00 F000 01152         GOTO    _00316_DS_
017E EF00 F000 01153         GOTO    _00320_DS_
0182 EF00 F000 01154         GOTO    _00324_DS_
0186 EF00 F000 01155         GOTO    _00325_DS_
018A EF00 F000 01156         GOTO    _00328_DS_
018E 01157 _00302_DS_:
               01158 ;       .line   417; lena.c     whereami = SET_HOUR;
018E 0E02      01159         MOVLW   0x02
0190 0000      01160         BANKSEL _whereami
0192 6F00      01161         MOVWF   _whereami, B
               01162 ;       .line   418; lena.c     break;
0194 D000      01163         BRA     _00332_DS_
0196 01164 _00303_DS_:
0196 0000      01165         BANKSEL _thour
               01166 ;       .line   420; lena.c     thour++;
0198 2B00      01167         INCF    _thour, F, B
019A 0000      01168         BANKSEL _thour
               01169 ;       .line   421; lena.c     if (thour == 24) {
019C 5100      01170         MOVF    _thour, W, B
019E 0A18      01171         XORLW   0x18
01A0 E000      01172         BZ      _00360_DS_
01A2 D000      01173         BRA     _00332_DS_
01A4 01174 _00360_DS_:
01A4 0000      01175         BANKSEL _thour
               01176 ;       .line   422; lena.c     thour = 0;
01A6 6B00      01177         CLRF    _thour, B
               01178 ;       .line   424; lena.c     break;
01A8 D000      01179         BRA     _00332_DS_
01AA 01180 _00306_DS_:
01AA 0000      01181         BANKSEL _tmin
               01182 ;       .line   426; lena.c     if (tmin == 59) {
01AC 5100      01183         MOVF    _tmin, W, B
01AE 0A3B      01184         XORLW   0x3b
01B0 E100      01185         BNZ     _00308_DS_
01B2 01186 _00362_DS_:
01B2 0000      01187         BANKSEL _tmin
               01188 ;       .line   427; lena.c     tmin = 0;
gpasm-0.13.7 beta               Objects/lena.asm10-26-2013  15:30:39         PAGE 23


LOC  OBJECT CODE     LINE SOURCE TEXT
  VALUE
 
01B4 6B00      01189         CLRF    _tmin, B
01B6 D000      01190         BRA     _00332_DS_
01B8 01191 _00308_DS_:
01B8 0000      01192         BANKSEL _tmin
               01193 ;       .line   429; lena.c     tmin++;
01BA 2B00      01194         INCF    _tmin, F, B
               01195 ;       .line   431; lena.c     break;
01BC D000      01196         BRA     _00332_DS_
01BE 01197 _00310_DS_:
01BE 0000      01198         BANKSEL _tsec
               01199 ;       .line   433; lena.c     if (tsec == 59) {
01C0 5100      01200         MOVF    _tsec, W, B
01C2 0A3B      01201         XORLW   0x3b
01C4 E100      01202         BNZ     _00312_DS_
01C6 01203 _00364_DS_:
01C6 0000      01204         BANKSEL _tsec
               01205 ;       .line   434; lena.c     tsec = 0;
01C8 6B00      01206         CLRF    _tsec, B
01CA D000      01207         BRA     _00332_DS_
01CC 01208 _00312_DS_:
01CC 0000      01209         BANKSEL _tsec
               01210 ;       .line   436; lena.c     tsec++;
01CE 2B00      01211         INCF    _tsec, F, B
               01212 ;       .line   438; lena.c     break;
01D0 D000      01213         BRA     _00332_DS_
01D2 01214 _00314_DS_:
               01215 ;       .line   440; lena.c     whereami = SET_ALARM;
01D2 0E06      01216         MOVLW   0x06
01D4 0000      01217         BANKSEL _whereami
01D6 6F00      01218         MOVWF   _whereami, B
               01219 ;       .line   441; lena.c     break;
01D8 D000      01220         BRA     _00332_DS_
01DA 01221 _00315_DS_:
               01222 ;       .line   443; lena.c     alarm_set ^= 1;
01DA 0E01      01223         MOVLW   0x01
01DC 0000      01224         BANKSEL _alarm_set
01DE 1B00      01225         XORWF   _alarm_set, F, B
               01226 ;       .line   444; lena.c     break;
01E0 D000      01227         BRA     _00332_DS_
01E2 01228 _00316_DS_:
01E2 0000      01229         BANKSEL _ahour
               01230 ;       .line   446; lena.c     if (ahour == 23) {
01E4 5100      01231         MOVF    _ahour, W, B
01E6 0A17      01232         XORLW   0x17
01E8 E100      01233         BNZ     _00318_DS_
01EA 01234 _00367_DS_:
01EA 0000      01235         BANKSEL _ahour
               01236 ;       .line   447; lena.c     ahour = 0;
01EC 6B00      01237         CLRF    _ahour, B
01EE D000      01238         BRA     _00319_DS_
01F0 01239 _00318_DS_:
01F0 0000      01240         BANKSEL _ahour
               01241 ;       .line   449; lena.c     ahour++;
01F2 2B00      01242         INCF    _ahour, F, B
gpasm-0.13.7 beta               Objects/lena.asm10-26-2013  15:30:39         PAGE 24


LOC  OBJECT CODE     LINE SOURCE TEXT
  VALUE
 
01F4 01243 _00319_DS_:
               01244 ;       .line   451; lena.c     ahour_o = ahour;
01F4 C000 F000 01245         MOVFF   _ahour, _ahour_o
               01246 ;       .line   452; lena.c     break;
01F8 D000      01247         BRA     _00332_DS_
01FA 01248 _00320_DS_:
01FA 0000      01249         BANKSEL _amin
               01250 ;       .line   454; lena.c     if (amin == 59) {
01FC 5100      01251         MOVF    _amin, W, B
01FE 0A3B      01252         XORLW   0x3b
0200 E100      01253         BNZ     _00322_DS_
0202 01254 _00369_DS_:
0202 0000      01255         BANKSEL _amin
               01256 ;       .line   455; lena.c     amin = 0;
0204 6B00      01257         CLRF    _amin, B
0206 D000      01258         BRA     _00323_DS_
0208 01259 _00322_DS_:
0208 0000      01260         BANKSEL _amin
               01261 ;       .line   457; lena.c     amin++;
020A 2B00      01262         INCF    _amin, F, B
020C 01263 _00323_DS_:
               01264 ;       .line   459; lena.c     amin_o = amin;
020C C000 F000 01265         MOVFF   _amin, _amin_o
               01266 ;       .line   460; lena.c     break;
0210 D000      01267         BRA     _00332_DS_
0212 01268 _00324_DS_:
               01269 ;       .line   463; lena.c     break;
0212 D000      01270         BRA     _00332_DS_
0214 01271 _00325_DS_:
               01272 ;       .line   466; lena.c     if (snooze < SNOOZE_MAX) {
0214 0E0C      01273         MOVLW   0x0c
0216 0000      01274         BANKSEL _snooze
0218 5D00      01275         SUBWF   _snooze, W, B
021A E200      01276         BC      _00332_DS_
               01277 ;       .line   467; lena.c     inc_amin(SNOOZE_MINUTE); // modifie le rveil
021C 0E05      01278         MOVLW   0x05
021E 6EE5      01279         MOVWF   POSTDEC1
0220 EC00 F000 01280         CALL    _inc_amin
0224 2AE1      01281         INCF    FSR1L, F
0226 0000      01282         BANKSEL _snooze
               01283 ;       .line   468; lena.c     snooze++; // augmente le compteur de snooze
0228 2B00      01284         INCF    _snooze, F, B
               01285 ;       .line   469; lena.c     LATJbits.LATJ1 = 0; // switch LED 2 off
022A 9200      01286         BCF     _LATJbits, 1
               01287 ;       .line   470; lena.c     LATJbits.LATJ2 = 0; // switch LED 3 off
022C 9400      01288         BCF     _LATJbits, 2
               01289 ;       .line   471; lena.c     whereami = SNOOZE;
022E 0E0B      01290         MOVLW   0x0b
0230 0000      01291         BANKSEL _whereami
0232 6F00      01292         MOVWF   _whereami, B
               01293 ;       .line   474; lena.c     break;
0234 D000      01294         BRA     _00332_DS_
0236 01295 _00328_DS_:
               01296 ;       .line   477; lena.c     if (snooze < SNOOZE_MAX) {
gpasm-0.13.7 beta               Objects/lena.asm10-26-2013  15:30:39         PAGE 25


LOC  OBJECT CODE     LINE SOURCE TEXT
  VALUE
 
0236 0E0C      01297         MOVLW   0x0c
0238 0000      01298         BANKSEL _snooze
023A 5D00      01299         SUBWF   _snooze, W, B
023C E200      01300         BC      _00332_DS_
               01301 ;       .line   478; lena.c     inc_amin(SNOOZE_MINUTE); // modifie le rveil
023E 0E05      01302         MOVLW   0x05
0240 6EE5      01303         MOVWF   POSTDEC1
0242 EC00 F000 01304         CALL    _inc_amin
0246 2AE1      01305         INCF    FSR1L, F
0248 0000      01306         BANKSEL _snooze
               01307 ;       .line   479; lena.c     snooze++; // augmente le compteur de snooze
024A 2B00      01308         INCF    _snooze, F, B
024C 01309 _00332_DS_:
024C 0000      01310         BANKSEL _button2
               01311 ;       .line   486; lena.c     button2 = 0; // remet le flag du boutton 2  0
024E 6B00      01312         CLRF    _button2, B
0250 01313 _00338_DS_:
0250 CFE4 F000 01314         MOVFF   PREINC1, r0x00
0254 CFE4 FFD9 01315         MOVFF   PREINC1, FSR2L
0258 0012      01316         RETURN  
               01317 
               01318 ; ; Starting pCode block
               01319 S_lena__alarm   code
0000 01320 _alarm:
               01321 ;       .line   322; lena.c     void alarm(void)
0000 CFD9 FFE5 01322         MOVFF   FSR2L, POSTDEC1
0004 CFE1 FFD9 01323         MOVFF   FSR1L, FSR2L
0008 0000      01324         BANKSEL _thour
               01325 ;       .line   326; lena.c     if ((thour == ahour) && (tmin == amin) && alarm_set) {
000A 5100      01326         MOVF    _thour, W, B
000C 0000      01327         BANKSEL _ahour
000E 1900      01328         XORWF   _ahour, W, B
0010 E000      01329         BZ      _00274_DS_
0012 D000      01330         BRA     _00262_DS_
0014 01331 _00274_DS_:
0014 0000      01332         BANKSEL _tmin
0016 5100      01333         MOVF    _tmin, W, B
0018 0000      01334         BANKSEL _amin
001A 1900      01335         XORWF   _amin, W, B
001C E000      01336         BZ      _00276_DS_
001E D000      01337         BRA     _00262_DS_
0020 01338 _00276_DS_:
0020 0000      01339         BANKSEL _alarm_set
0022 5100      01340         MOVF    _alarm_set, W, B
0024 E000      01341         BZ      _00262_DS_
               01342 ;       .line   329; lena.c     if ((tsec < 31) && (stop_ringing == 0)) {
0026 0E1F      01343         MOVLW   0x1f
0028 0000      01344         BANKSEL _tsec
002A 5D00      01345         SUBWF   _tsec, W, B
002C E200      01346         BC      _00255_DS_
002E 0000      01347         BANKSEL _stop_ringing
0030 5100      01348         MOVF    _stop_ringing, W, B
0032 E100      01349         BNZ     _00255_DS_
0034 0000      01350         BANKSEL _whereami
gpasm-0.13.7 beta               Objects/lena.asm10-26-2013  15:30:39         PAGE 26


LOC  OBJECT CODE     LINE SOURCE TEXT
  VALUE
 
               01351 ;       .line   330; lena.c     if ((whereami == DISPLAY) || (whereami == SNOOZE)) {
0036 5100      01352         MOVF    _whereami, W, B
0038 0A09      01353         XORLW   0x09
003A E000      01354         BZ      _00244_DS_
003C 01355 _00279_DS_:
003C 0000      01356         BANKSEL _whereami
003E 5100      01357         MOVF    _whereami, W, B
0040 0A0B      01358         XORLW   0x0b
0042 E100      01359         BNZ     _00262_DS_
0044 01360 _00244_DS_:
               01361 ;       .line   331; lena.c     whereami = ALARM;
0044 0E0A      01362         MOVLW   0x0a
0046 0000      01363         BANKSEL _whereami
0048 6F00      01364         MOVWF   _whereami, B
004A D000      01365         BRA     _00262_DS_
004C 01366 _00255_DS_:
               01367 ;       .line   334; lena.c     } else if (tsec > 30) {
004C 0E1F      01368         MOVLW   0x1f
004E 0000      01369         BANKSEL _tsec
0050 5D00      01370         SUBWF   _tsec, W, B
0052 E300      01371         BNC     _00262_DS_
0054 0000      01372         BANKSEL _stop_ringing
               01373 ;       .line   335; lena.c     stop_ringing = 0; // remet  0 si l'alarme a t teinte  la main
0056 6B00      01374         CLRF    _stop_ringing, B
               01375 ;       .line   336; lena.c     LATJbits.LATJ1 = 0; // switch LED 2 off
0058 9200      01376         BCF     _LATJbits, 1
               01377 ;       .line   337; lena.c     LATJbits.LATJ2 = 0; // switch LED 3 off
005A 9400      01378         BCF     _LATJbits, 2
005C 0000      01379         BANKSEL _snooze
               01380 ;       .line   339; lena.c     if (snooze) {
005E 5100      01381         MOVF    _snooze, W, B
0060 E000      01382         BZ      _00250_DS_
               01383 ;       .line   340; lena.c     ahour = ahour_o; // remet le rveil
0062 C000 F000 01384         MOVFF   _ahour_o, _ahour
               01385 ;       .line   341; lena.c     amin = amin_o;
0066 C000 F000 01386         MOVFF   _amin_o, _amin
006A 0000      01387         BANKSEL _snooze
               01388 ;       .line   342; lena.c     snooze = 0;
006C 6B00      01389         CLRF    _snooze, B
               01390 ;       .line   343; lena.c     whereami = DISPLAY;
006E 0E09      01391         MOVLW   0x09
0070 0000      01392         BANKSEL _whereami
0072 6F00      01393         MOVWF   _whereami, B
0074 D000      01394         BRA     _00262_DS_
0076 01395 _00250_DS_:
0076 0000      01396         BANKSEL _whereami
               01397 ;       .line   344; lena.c     } else if (whereami == ALARM) { // si l'alarme sonnait toujours, on
0078 5100      01398         MOVF    _whereami, W, B
007A 0A0A      01399         XORLW   0x0a
007C E100      01400         BNZ     _00262_DS_
               01401 ;       .line   345; lena.c     whereami = DISPLAY;         // revient  l'affichage de l'heure
007E 0E09      01402         MOVLW   0x09
0080 0000      01403         BANKSEL _whereami
0082 6F00      01404         MOVWF   _whereami, B
gpasm-0.13.7 beta               Objects/lena.asm10-26-2013  15:30:39         PAGE 27


LOC  OBJECT CODE     LINE SOURCE TEXT
  VALUE
 
0084 01405 _00262_DS_:
0084 CFE4 FFD9 01406         MOVFF   PREINC1, FSR2L
0088 0012      01407         RETURN  
               01408 
               01409 ; ; Starting pCode block
               01410 S_lena__refresh_lcd     code
0000 01411 _refresh_lcd:
               01412 ;       .line   223; lena.c     void refresh_lcd(void)
0000 CFD9 FFE5 01413         MOVFF   FSR2L, POSTDEC1
0004 CFE1 FFD9 01414         MOVFF   FSR1L, FSR2L
0008 C000 FFE5 01415         MOVFF   r0x00, POSTDEC1
000C C000 FFE5 01416         MOVFF   r0x01, POSTDEC1
0010 C000 FFE5 01417         MOVFF   r0x02, POSTDEC1
0014 C000 FFE5 01418         MOVFF   r0x03, POSTDEC1
0018 C000 FFE5 01419         MOVFF   r0x04, POSTDEC1
001C C000 FFE5 01420         MOVFF   r0x05, POSTDEC1
0020 C000 FFE5 01421         MOVFF   r0x06, POSTDEC1
0024 C000 FFE5 01422         MOVFF   r0x07, POSTDEC1
0028 C000 FFE5 01423         MOVFF   r0x08, POSTDEC1
002C C000 FFE5 01424         MOVFF   r0x09, POSTDEC1
0030 C000 FFE5 01425         MOVFF   r0x0a, POSTDEC1
0034 C000 FFE5 01426         MOVFF   r0x0b, POSTDEC1
0038 C000 FFE5 01427         MOVFF   r0x0c, POSTDEC1
003C C000 FFE5 01428         MOVFF   r0x0d, POSTDEC1
0040 C000 FFE5 01429         MOVFF   r0x0e, POSTDEC1
0044 0000      01430         BANKSEL (_overflows + 3)
               01431 ;       .line   225; lena.c     sec = overflows/F;
0046 5100      01432         MOVF    (_overflows + 3), W, B
0048 6EE5      01433         MOVWF   POSTDEC1
004A 0000      01434         BANKSEL (_overflows + 2)
004C 5100      01435         MOVF    (_overflows + 2), W, B
004E 6EE5      01436         MOVWF   POSTDEC1
0050 0000      01437         BANKSEL (_overflows + 1)
0052 5100      01438         MOVF    (_overflows + 1), W, B
0054 6EE5      01439         MOVWF   POSTDEC1
0056 0000      01440         BANKSEL _overflows
0058 5100      01441         MOVF    _overflows, W, B
005A 6EE5      01442         MOVWF   POSTDEC1
005C EC00 F000 01443         CALL    ___ulong2fs
0060 6E00      01444         MOVWF   r0x00
0062 CFF3 F000 01445         MOVFF   PRODL, r0x01
0066 CFF4 F000 01446         MOVFF   PRODH, r0x02
006A CFE9 F000 01447         MOVFF   FSR0L, r0x03
006E 0E04      01448         MOVLW   0x04
0070 26E1      01449         ADDWF   FSR1L, F
0072 0E42      01450         MOVLW   0x42
0074 6EE5      01451         MOVWF   POSTDEC1
0076 0EBE      01452         MOVLW   0xbe
0078 6EE5      01453         MOVWF   POSTDEC1
007A 0EBB      01454         MOVLW   0xbb
007C 6EE5      01455         MOVWF   POSTDEC1
007E 0E2A      01456         MOVLW   0x2a
0080 6EE5      01457         MOVWF   POSTDEC1
0082 5000      01458         MOVF    r0x03, W
gpasm-0.13.7 beta               Objects/lena.asm10-26-2013  15:30:39         PAGE 28


LOC  OBJECT CODE     LINE SOURCE TEXT
  VALUE
 
0084 6EE5      01459         MOVWF   POSTDEC1
0086 5000      01460         MOVF    r0x02, W
0088 6EE5      01461         MOVWF   POSTDEC1
008A 5000      01462         MOVF    r0x01, W
008C 6EE5      01463         MOVWF   POSTDEC1
008E 5000      01464         MOVF    r0x00, W
0090 6EE5      01465         MOVWF   POSTDEC1
0092 EC00 F000 01466         CALL    ___fsdiv
0096 6E00      01467         MOVWF   r0x00
0098 CFF3 F000 01468         MOVFF   PRODL, r0x01
009C CFF4 F000 01469         MOVFF   PRODH, r0x02
00A0 CFE9 F000 01470         MOVFF   FSR0L, r0x03
00A4 0E08      01471         MOVLW   0x08
00A6 26E1      01472         ADDWF   FSR1L, F
00A8 5000      01473         MOVF    r0x03, W
00AA 6EE5      01474         MOVWF   POSTDEC1
00AC 5000      01475         MOVF    r0x02, W
00AE 6EE5      01476         MOVWF   POSTDEC1
00B0 5000      01477         MOVF    r0x01, W
00B2 6EE5      01478         MOVWF   POSTDEC1
00B4 5000      01479         MOVF    r0x00, W
00B6 6EE5      01480         MOVWF   POSTDEC1
00B8 EC00 F000 01481         CALL    ___fs2ulong
00BC 0000      01482         BANKSEL _sec
00BE 6F00      01483         MOVWF   _sec, B
00C0 CFF3 F000 01484         MOVFF   PRODL, (_sec + 1)
00C4 CFF4 F000 01485         MOVFF   PRODH, (_sec + 2)
00C8 CFE9 F000 01486         MOVFF   FSR0L, (_sec + 3)
00CC 0E04      01487         MOVLW   0x04
00CE 26E1      01488         ADDWF   FSR1L, F
00D0 0000      01489         BANKSEL (_overflows + 3)
               01490 ;       .line   226; lena.c     decisec = ((10*overflows)/F);
00D2 5100      01491         MOVF    (_overflows + 3), W, B
00D4 6EE5      01492         MOVWF   POSTDEC1
00D6 0000      01493         BANKSEL (_overflows + 2)
00D8 5100      01494         MOVF    (_overflows + 2), W, B
00DA 6EE5      01495         MOVWF   POSTDEC1
00DC 0000      01496         BANKSEL (_overflows + 1)
00DE 5100      01497         MOVF    (_overflows + 1), W, B
00E0 6EE5      01498         MOVWF   POSTDEC1
00E2 0000      01499         BANKSEL _overflows
00E4 5100      01500         MOVF    _overflows, W, B
00E6 6EE5      01501         MOVWF   POSTDEC1
00E8 0E00      01502         MOVLW   0x00
00EA 6EE5      01503         MOVWF   POSTDEC1
00EC 0E00      01504         MOVLW   0x00
00EE 6EE5      01505         MOVWF   POSTDEC1
00F0 0E00      01506         MOVLW   0x00
00F2 6EE5      01507         MOVWF   POSTDEC1
00F4 0E0A      01508         MOVLW   0x0a
00F6 6EE5      01509         MOVWF   POSTDEC1
00F8 EC00 F000 01510         CALL    __mullong
00FC 6E00      01511         MOVWF   r0x00
00FE CFF3 F000 01512         MOVFF   PRODL, r0x01
gpasm-0.13.7 beta               Objects/lena.asm10-26-2013  15:30:39         PAGE 29


LOC  OBJECT CODE     LINE SOURCE TEXT
  VALUE
 
0102 CFF4 F000 01513         MOVFF   PRODH, r0x02
0106 CFE9 F000 01514         MOVFF   FSR0L, r0x03
010A 0E08      01515         MOVLW   0x08
010C 26E1      01516         ADDWF   FSR1L, F
010E 5000      01517         MOVF    r0x03, W
0110 6EE5      01518         MOVWF   POSTDEC1
0112 5000      01519         MOVF    r0x02, W
0114 6EE5      01520         MOVWF   POSTDEC1
0116 5000      01521         MOVF    r0x01, W
0118 6EE5      01522         MOVWF   POSTDEC1
011A 5000      01523         MOVF    r0x00, W
011C 6EE5      01524         MOVWF   POSTDEC1
011E EC00 F000 01525         CALL    ___ulong2fs
0122 6E00      01526         MOVWF   r0x00
0124 CFF3 F000 01527         MOVFF   PRODL, r0x01
0128 CFF4 F000 01528         MOVFF   PRODH, r0x02
012C CFE9 F000 01529         MOVFF   FSR0L, r0x03
0130 0E04      01530         MOVLW   0x04
0132 26E1      01531         ADDWF   FSR1L, F
0134 0E42      01532         MOVLW   0x42
0136 6EE5      01533         MOVWF   POSTDEC1
0138 0EBE      01534         MOVLW   0xbe
013A 6EE5      01535         MOVWF   POSTDEC1
013C 0EBB      01536         MOVLW   0xbb
013E 6EE5      01537         MOVWF   POSTDEC1
0140 0E2A      01538         MOVLW   0x2a
0142 6EE5      01539         MOVWF   POSTDEC1
0144 5000      01540         MOVF    r0x03, W
0146 6EE5      01541         MOVWF   POSTDEC1
0148 5000      01542         MOVF    r0x02, W
014A 6EE5      01543         MOVWF   POSTDEC1
014C 5000      01544         MOVF    r0x01, W
014E 6EE5      01545         MOVWF   POSTDEC1
0150 5000      01546         MOVF    r0x00, W
0152 6EE5      01547         MOVWF   POSTDEC1
0154 EC00 F000 01548         CALL    ___fsdiv
0158 6E00      01549         MOVWF   r0x00
015A CFF3 F000 01550         MOVFF   PRODL, r0x01
015E CFF4 F000 01551         MOVFF   PRODH, r0x02
0162 CFE9 F000 01552         MOVFF   FSR0L, r0x03
0166 0E08      01553         MOVLW   0x08
0168 26E1      01554         ADDWF   FSR1L, F
016A 5000      01555         MOVF    r0x03, W
016C 6EE5      01556         MOVWF   POSTDEC1
016E 5000      01557         MOVF    r0x02, W
0170 6EE5      01558         MOVWF   POSTDEC1
0172 5000      01559         MOVF    r0x01, W
0174 6EE5      01560         MOVWF   POSTDEC1
0176 5000      01561         MOVF    r0x00, W
0178 6EE5      01562         MOVWF   POSTDEC1
017A EC00 F000 01563         CALL    ___fs2ulong
017E 0000      01564         BANKSEL _decisec
0180 6F00      01565         MOVWF   _decisec, B
0182 CFF3 F000 01566         MOVFF   PRODL, (_decisec + 1)
gpasm-0.13.7 beta               Objects/lena.asm10-26-2013  15:30:39         PAGE 30


LOC  OBJECT CODE     LINE SOURCE TEXT
  VALUE
 
0186 CFF4 F000 01567         MOVFF   PRODH, (_decisec + 2)
018A CFE9 F000 01568         MOVFF   FSR0L, (_decisec + 3)
018E 0E04      01569         MOVLW   0x04
0190 26E1      01570         ADDWF   FSR1L, F
               01571 ;       .line   227; lena.c     ds = decisec%10;
0192 0E00      01572         MOVLW   0x00
0194 6EE5      01573         MOVWF   POSTDEC1
0196 0E00      01574         MOVLW   0x00
0198 6EE5      01575         MOVWF   POSTDEC1
019A 0E00      01576         MOVLW   0x00
019C 6EE5      01577         MOVWF   POSTDEC1
019E 0E0A      01578         MOVLW   0x0a
01A0 6EE5      01579         MOVWF   POSTDEC1
01A2 0000      01580         BANKSEL (_decisec + 3)
01A4 5100      01581         MOVF    (_decisec + 3), W, B
01A6 6EE5      01582         MOVWF   POSTDEC1
01A8 0000      01583         BANKSEL (_decisec + 2)
01AA 5100      01584         MOVF    (_decisec + 2), W, B
01AC 6EE5      01585         MOVWF   POSTDEC1
01AE 0000      01586         BANKSEL (_decisec + 1)
01B0 5100      01587         MOVF    (_decisec + 1), W, B
01B2 6EE5      01588         MOVWF   POSTDEC1
01B4 0000      01589         BANKSEL _decisec
01B6 5100      01590         MOVF    _decisec, W, B
01B8 6EE5      01591         MOVWF   POSTDEC1
01BA EC00 F000 01592         CALL    __modulong
01BE 6E00      01593         MOVWF   r0x00
01C0 CFF3 F000 01594         MOVFF   PRODL, r0x01
01C4 CFF4 F000 01595         MOVFF   PRODH, r0x02
01C8 CFE9 F000 01596         MOVFF   FSR0L, r0x03
01CC 0E08      01597         MOVLW   0x08
01CE 26E1      01598         ADDWF   FSR1L, F
01D0 5000      01599         MOVF    r0x00, W
01D2 0000      01600         BANKSEL _ds
01D4 6F00      01601         MOVWF   _ds, B
01D6 5000      01602         MOVF    r0x01, W
01D8 0000      01603         BANKSEL (_ds + 1)
01DA 6F00      01604         MOVWF   (_ds + 1), B
               01605 ;       .line   228; lena.c     h = (sec/3600)%24;
01DC 0E00      01606         MOVLW   0x00
01DE 6EE5      01607         MOVWF   POSTDEC1
01E0 0E00      01608         MOVLW   0x00
01E2 6EE5      01609         MOVWF   POSTDEC1
01E4 0E0E      01610         MOVLW   0x0e
01E6 6EE5      01611         MOVWF   POSTDEC1
01E8 0E10      01612         MOVLW   0x10
01EA 6EE5      01613         MOVWF   POSTDEC1
01EC 0000      01614         BANKSEL (_sec + 3)
01EE 5100      01615         MOVF    (_sec + 3), W, B
01F0 6EE5      01616         MOVWF   POSTDEC1
01F2 0000      01617         BANKSEL (_sec + 2)
01F4 5100      01618         MOVF    (_sec + 2), W, B
01F6 6EE5      01619         MOVWF   POSTDEC1
01F8 0000      01620         BANKSEL (_sec + 1)
gpasm-0.13.7 beta               Objects/lena.asm10-26-2013  15:30:39         PAGE 31


LOC  OBJECT CODE     LINE SOURCE TEXT
  VALUE
 
01FA 5100      01621         MOVF    (_sec + 1), W, B
01FC 6EE5      01622         MOVWF   POSTDEC1
01FE 0000      01623         BANKSEL _sec
0200 5100      01624         MOVF    _sec, W, B
0202 6EE5      01625         MOVWF   POSTDEC1
0204 EC00 F000 01626         CALL    __divulong
0208 6E00      01627         MOVWF   r0x00
020A CFF3 F000 01628         MOVFF   PRODL, r0x01
020E CFF4 F000 01629         MOVFF   PRODH, r0x02
0212 CFE9 F000 01630         MOVFF   FSR0L, r0x03
0216 0E08      01631         MOVLW   0x08
0218 26E1      01632         ADDWF   FSR1L, F
021A 0E00      01633         MOVLW   0x00
021C 6EE5      01634         MOVWF   POSTDEC1
021E 0E00      01635         MOVLW   0x00
0220 6EE5      01636         MOVWF   POSTDEC1
0222 0E00      01637         MOVLW   0x00
0224 6EE5      01638         MOVWF   POSTDEC1
0226 0E18      01639         MOVLW   0x18
0228 6EE5      01640         MOVWF   POSTDEC1
022A 5000      01641         MOVF    r0x03, W
022C 6EE5      01642         MOVWF   POSTDEC1
022E 5000      01643         MOVF    r0x02, W
0230 6EE5      01644         MOVWF   POSTDEC1
0232 5000      01645         MOVF    r0x01, W
0234 6EE5      01646         MOVWF   POSTDEC1
0236 5000      01647         MOVF    r0x00, W
0238 6EE5      01648         MOVWF   POSTDEC1
023A EC00 F000 01649         CALL    __modulong
023E 6E00      01650         MOVWF   r0x04
0240 CFF3 F000 01651         MOVFF   PRODL, r0x05
0244 CFF4 F000 01652         MOVFF   PRODH, r0x06
0248 CFE9 F000 01653         MOVFF   FSR0L, r0x07
024C 0E08      01654         MOVLW   0x08
024E 26E1      01655         ADDWF   FSR1L, F
0250 5000      01656         MOVF    r0x04, W
0252 0000      01657         BANKSEL _h
0254 6F00      01658         MOVWF   _h, B
               01659 ;       .line   229; lena.c     m = (sec-(sec/3600)*3600)/60;
0256 5000      01660         MOVF    r0x03, W
0258 6EE5      01661         MOVWF   POSTDEC1
025A 5000      01662         MOVF    r0x02, W
025C 6EE5      01663         MOVWF   POSTDEC1
025E 5000      01664         MOVF    r0x01, W
0260 6EE5      01665         MOVWF   POSTDEC1
0262 5000      01666         MOVF    r0x00, W
0264 6EE5      01667         MOVWF   POSTDEC1
0266 0E00      01668         MOVLW   0x00
0268 6EE5      01669         MOVWF   POSTDEC1
026A 0E00      01670         MOVLW   0x00
026C 6EE5      01671         MOVWF   POSTDEC1
026E 0E0E      01672         MOVLW   0x0e
0270 6EE5      01673         MOVWF   POSTDEC1
0272 0E10      01674         MOVLW   0x10
gpasm-0.13.7 beta               Objects/lena.asm10-26-2013  15:30:39         PAGE 32


LOC  OBJECT CODE     LINE SOURCE TEXT
  VALUE
 
0274 6EE5      01675         MOVWF   POSTDEC1
0276 EC00 F000 01676         CALL    __mullong
027A 6E00      01677         MOVWF   r0x00
027C CFF3 F000 01678         MOVFF   PRODL, r0x01
0280 CFF4 F000 01679         MOVFF   PRODH, r0x02
0284 CFE9 F000 01680         MOVFF   FSR0L, r0x03
0288 0E08      01681         MOVLW   0x08
028A 26E1      01682         ADDWF   FSR1L, F
028C 5000      01683         MOVF    r0x00, W
028E 0000      01684         BANKSEL _sec
0290 5D00      01685         SUBWF   _sec, W, B
0292 6E00      01686         MOVWF   r0x00
0294 5000      01687         MOVF    r0x01, W
0296 0000      01688         BANKSEL (_sec + 1)
0298 5900      01689         SUBWFB  (_sec + 1), W, B
029A 6E00      01690         MOVWF   r0x01
029C 5000      01691         MOVF    r0x02, W
029E 0000      01692         BANKSEL (_sec + 2)
02A0 5900      01693         SUBWFB  (_sec + 2), W, B
02A2 6E00      01694         MOVWF   r0x02
02A4 5000      01695         MOVF    r0x03, W
02A6 0000      01696         BANKSEL (_sec + 3)
02A8 5900      01697         SUBWFB  (_sec + 3), W, B
02AA 6E00      01698         MOVWF   r0x03
02AC 0E00      01699         MOVLW   0x00
02AE 6EE5      01700         MOVWF   POSTDEC1
02B0 0E00      01701         MOVLW   0x00
02B2 6EE5      01702         MOVWF   POSTDEC1
02B4 0E00      01703         MOVLW   0x00
02B6 6EE5      01704         MOVWF   POSTDEC1
02B8 0E3C      01705         MOVLW   0x3c
02BA 6EE5      01706         MOVWF   POSTDEC1
02BC 5000      01707         MOVF    r0x03, W
02BE 6EE5      01708         MOVWF   POSTDEC1
02C0 5000      01709         MOVF    r0x02, W
02C2 6EE5      01710         MOVWF   POSTDEC1
02C4 5000      01711         MOVF    r0x01, W
02C6 6EE5      01712         MOVWF   POSTDEC1
02C8 5000      01713         MOVF    r0x00, W
02CA 6EE5      01714         MOVWF   POSTDEC1
02CC EC00 F000 01715         CALL    __divulong
02D0 6E00      01716         MOVWF   r0x00
02D2 CFF3 F000 01717         MOVFF   PRODL, r0x01
02D6 CFF4 F000 01718         MOVFF   PRODH, r0x02
02DA CFE9 F000 01719         MOVFF   FSR0L, r0x03
02DE 0E08      01720         MOVLW   0x08
02E0 26E1      01721         ADDWF   FSR1L, F
02E2 5000      01722         MOVF    r0x00, W
02E4 0000      01723         BANKSEL _m
02E6 6F00      01724         MOVWF   _m, B
02E8 0000      01725         BANKSEL _sec
               01726 ;       .line   230; lena.c     s = sec-m*60;
02EA 5100      01727         MOVF    _sec, W, B
02EC 6E00      01728         MOVWF   r0x00
gpasm-0.13.7 beta               Objects/lena.asm10-26-2013  15:30:39         PAGE 33


LOC  OBJECT CODE     LINE SOURCE TEXT
  VALUE
 
               01729 ; ;multiply lit val:0x3c by variable _m and store in r0x01
               01730 ; ;Unrolled 8 X 8 multiplication
               01731 ; ;FIXME: the function does not support result==WREG
02EE 0000      01732         BANKSEL _m
02F0 5100      01733         MOVF    _m, W, B
02F2 0D3C      01734         MULLW   0x3c
02F4 CFF3 F000 01735         MOVFF   PRODL, r0x01
02F8 5000      01736         MOVF    r0x01, W
02FA 5C00      01737         SUBWF   r0x00, W
02FC 0000      01738         BANKSEL _s
02FE 6F00      01739         MOVWF   _s, B
0300 0000      01740         BANKSEL _on
               01741 ;       .line   232; lena.c     if (!on && ds < 5) {
0302 5100      01742         MOVF    _on, W, B
0304 E100      01743         BNZ     _00167_DS_
0306 0E00      01744         MOVLW   0x00
0308 0000      01745         BANKSEL (_ds + 1)
030A 5D00      01746         SUBWF   (_ds + 1), W, B
030C E100      01747         BNZ     _00218_DS_
030E 0E05      01748         MOVLW   0x05
0310 0000      01749         BANKSEL _ds
0312 5D00      01750         SUBWF   _ds, W, B
0314 01751 _00218_DS_:
0314 E200      01752         BC      _00167_DS_
               01753 ;       .line   233; lena.c     LED0_IO ^= 1;
0316 6A00      01754         CLRF    r0x00
0318 B000      01755         BTFSC   _LATJbits, 0
031A 2A00      01756         INCF    r0x00, F
031C 0E01      01757         MOVLW   0x01
031E 1A00      01758         XORWF   r0x00, F
0320 5000      01759         MOVF    r0x00, W
0322 0B01      01760         ANDLW   0x01
0324 6EF4      01761         MOVWF   PRODH
0326 5000      01762         MOVF    _LATJbits, W
0328 0BFE      01763         ANDLW   0xfe
032A 10F4      01764         IORWF   PRODH, W
032C 6E00      01765         MOVWF   _LATJbits
032E 0000      01766         BANKSEL _whereami
               01767 ;       .line   234; lena.c     if (whereami == ALARM) {
0330 5100      01768         MOVF    _whereami, W, B
0332 0A0A      01769         XORLW   0x0a
0334 E100      01770         BNZ     _00165_DS_
               01771 ;       .line   235; lena.c     LED1_IO ^= 1;
0336 6A00      01772         CLRF    r0x00
0338 B200      01773         BTFSC   _LATJbits, 1
033A 2A00      01774         INCF    r0x00, F
033C 0E01      01775         MOVLW   0x01
033E 1A00      01776         XORWF   r0x00, F
0340 5000      01777         MOVF    r0x00, W
0342 0B01      01778         ANDLW   0x01
0344 44E8      01779         RLNCF   WREG, W
0346 6EF4      01780         MOVWF   PRODH
0348 5000      01781         MOVF    _LATJbits, W
034A 0BFD      01782         ANDLW   0xfd
gpasm-0.13.7 beta               Objects/lena.asm10-26-2013  15:30:39         PAGE 34


LOC  OBJECT CODE     LINE SOURCE TEXT
  VALUE
 
034C 10F4      01783         IORWF   PRODH, W
034E 6E00      01784         MOVWF   _LATJbits
               01785 ;       .line   236; lena.c     LED2_IO ^= 1;
0350 6A00      01786         CLRF    r0x00
0352 B400      01787         BTFSC   _LATJbits, 2
0354 2A00      01788         INCF    r0x00, F
0356 0E01      01789         MOVLW   0x01
0358 1A00      01790         XORWF   r0x00, F
035A 5000      01791         MOVF    r0x00, W
035C 0B01      01792         ANDLW   0x01
035E 44E8      01793         RLNCF   WREG, W
0360 44E8      01794         RLNCF   WREG, W
0362 6EF4      01795         MOVWF   PRODH
0364 5000      01796         MOVF    _LATJbits, W
0366 0BFB      01797         ANDLW   0xfb
0368 10F4      01798         IORWF   PRODH, W
036A 6E00      01799         MOVWF   _LATJbits
036C 01800 _00165_DS_:
               01801 ;       .line   238; lena.c     on = 1;
036C 0E01      01802         MOVLW   0x01
036E 0000      01803         BANKSEL _on
0370 6F00      01804         MOVWF   _on, B
0372 01805 _00167_DS_:
0372 0000      01806         BANKSEL _on
               01807 ;       .line   240; lena.c     if (on && ds >= 5) {
0374 5100      01808         MOVF    _on, W, B
0376 E000      01809         BZ      _00172_DS_
0378 0E00      01810         MOVLW   0x00
037A 0000      01811         BANKSEL (_ds + 1)
037C 5D00      01812         SUBWF   (_ds + 1), W, B
037E E100      01813         BNZ     _00224_DS_
0380 0E05      01814         MOVLW   0x05
0382 0000      01815         BANKSEL _ds
0384 5D00      01816         SUBWF   _ds, W, B
0386 01817 _00224_DS_:
0386 E300      01818         BNC     _00172_DS_
               01819 ;       .line   241; lena.c     LED0_IO ^= 1;
0388 6A00      01820         CLRF    r0x00
038A B000      01821         BTFSC   _LATJbits, 0
038C 2A00      01822         INCF    r0x00, F
038E 0E01      01823         MOVLW   0x01
0390 1A00      01824         XORWF   r0x00, F
0392 5000      01825         MOVF    r0x00, W
0394 0B01      01826         ANDLW   0x01
0396 6EF4      01827         MOVWF   PRODH
0398 5000      01828         MOVF    _LATJbits, W
039A 0BFE      01829         ANDLW   0xfe
039C 10F4      01830         IORWF   PRODH, W
039E 6E00      01831         MOVWF   _LATJbits
03A0 0000      01832         BANKSEL _whereami
               01833 ;       .line   242; lena.c     if (whereami == ALARM) {
03A2 5100      01834         MOVF    _whereami, W, B
03A4 0A0A      01835         XORLW   0x0a
03A6 E100      01836         BNZ     _00170_DS_
gpasm-0.13.7 beta               Objects/lena.asm10-26-2013  15:30:39         PAGE 35


LOC  OBJECT CODE     LINE SOURCE TEXT
  VALUE
 
               01837 ;       .line   243; lena.c     LED1_IO ^= 1;
03A8 6A00      01838         CLRF    r0x00
03AA B200      01839         BTFSC   _LATJbits, 1
03AC 2A00      01840         INCF    r0x00, F
03AE 0E01      01841         MOVLW   0x01
03B0 1A00      01842         XORWF   r0x00, F
03B2 5000      01843         MOVF    r0x00, W
03B4 0B01      01844         ANDLW   0x01
03B6 44E8      01845         RLNCF   WREG, W
03B8 6EF4      01846         MOVWF   PRODH
03BA 5000      01847         MOVF    _LATJbits, W
03BC 0BFD      01848         ANDLW   0xfd
03BE 10F4      01849         IORWF   PRODH, W
03C0 6E00      01850         MOVWF   _LATJbits
               01851 ;       .line   244; lena.c     LED2_IO ^= 1;
03C2 6A00      01852         CLRF    r0x00
03C4 B400      01853         BTFSC   _LATJbits, 2
03C6 2A00      01854         INCF    r0x00, F
03C8 0E01      01855         MOVLW   0x01
03CA 1A00      01856         XORWF   r0x00, F
03CC 5000      01857         MOVF    r0x00, W
03CE 0B01      01858         ANDLW   0x01
03D0 44E8      01859         RLNCF   WREG, W
03D2 44E8      01860         RLNCF   WREG, W
03D4 6EF4      01861         MOVWF   PRODH
03D6 5000      01862         MOVF    _LATJbits, W
03D8 0BFB      01863         ANDLW   0xfb
03DA 10F4      01864         IORWF   PRODH, W
03DC 6E00      01865         MOVWF   _LATJbits
03DE 01866 _00170_DS_:
03DE 0000      01867         BANKSEL _on
               01868 ;       .line   246; lena.c     on = 0;
03E0 6B00      01869         CLRF    _on, B
03E2 01870 _00172_DS_:
03E2 0000      01871         BANKSEL _tsec
               01872 ;       .line   249; lena.c     if (tsec != s)
03E4 5100      01873         MOVF    _tsec, W, B
03E6 0000      01874         BANKSEL _s
03E8 1900      01875         XORWF   _s, W, B
03EA E000      01876         BZ      _00175_DS_
               01877 ;       .line   250; lena.c     tsec = s;
03EC C000 F000 01878         MOVFF   _s, _tsec
03F0 01879 _00175_DS_:
03F0 0000      01880         BANKSEL _tmin
               01881 ;       .line   251; lena.c     if (tmin != m)
03F2 5100      01882         MOVF    _tmin, W, B
03F4 0000      01883         BANKSEL _m
03F6 1900      01884         XORWF   _m, W, B
03F8 E000      01885         BZ      _00177_DS_
               01886 ;       .line   252; lena.c     tmin = m;
03FA C000 F000 01887         MOVFF   _m, _tmin
03FE 01888 _00177_DS_:
03FE 0000      01889         BANKSEL _thour
               01890 ;       .line   253; lena.c     if (thour != h)
gpasm-0.13.7 beta               Objects/lena.asm10-26-2013  15:30:39         PAGE 36


LOC  OBJECT CODE     LINE SOURCE TEXT
  VALUE
 
0400 5100      01891         MOVF    _thour, W, B
0402 0000      01892         BANKSEL _h
0404 1900      01893         XORWF   _h, W, B
0406 E000      01894         BZ      _00179_DS_
               01895 ;       .line   254; lena.c     thour = h;
0408 C000 F000 01896         MOVFF   _h, _thour
040C 01897 _00179_DS_:
               01898 ;       .line   256; lena.c     switch (whereami) {
040C 0E01      01899         MOVLW   0x01
040E 0000      01900         BANKSEL _whereami
0410 5D00      01901         SUBWF   _whereami, W, B
0412 A0D8      01902         BTFSS   STATUS, 0
0414 EF00 F000 01903         GOTO    _00200_DS_
0418 0E0C      01904         MOVLW   0x0c
041A 0000      01905         BANKSEL _whereami
041C 5D00      01906         SUBWF   _whereami, W, B
041E B0D8      01907         BTFSC   STATUS, 0
0420 EF00 F000 01908         GOTO    _00200_DS_
0424 0000      01909         BANKSEL _whereami
0426 0500      01910         DECF    _whereami, W, B
0428 6E00      01911         MOVWF   r0x00
042A C000 FFE5 01912         MOVFF   r0x0f, POSTDEC1
042E C000 FFE5 01913         MOVFF   r0x10, POSTDEC1
0432 6A00      01914         CLRF    r0x10
0434 3400      01915         RLCF    r0x00, W
0436 3600      01916         RLCF    r0x10, F
0438 34E8      01917         RLCF    WREG, W
043A 3600      01918         RLCF    r0x10, F
043C 0BFC      01919         ANDLW   0xfc
043E 6E00      01920         MOVWF   r0x0f
0440 0E00      01921         MOVLW   UPPER(_00238_DS_)
0442 6EFB      01922         MOVWF   PCLATU
0444 0E00      01923         MOVLW   HIGH(_00238_DS_)
0446 6EFA      01924         MOVWF   PCLATH
0448 0E00      01925         MOVLW   LOW(_00238_DS_)
044A 2600      01926         ADDWF   r0x0f, F
044C 5000      01927         MOVF    r0x10, W
044E 22FA      01928         ADDWFC  PCLATH, F
0450 B0D8      01929         BTFSC   STATUS, 0
0452 2AFB      01930         INCF    PCLATU, F
0454 5000      01931         MOVF    r0x0f, W
0456 CFE4 F000 01932         MOVFF   PREINC1, r0x10
045A CFE4 F000 01933         MOVFF   PREINC1, r0x0f
045E 6EF9      01934         MOVWF   PCL
0460 01935 _00238_DS_:
0460 EF00 F000 01936         GOTO    _00180_DS_
0464 EF00 F000 01937         GOTO    _00181_DS_
0468 EF00 F000 01938         GOTO    _00182_DS_
046C EF00 F000 01939         GOTO    _00183_DS_
0470 EF00 F000 01940         GOTO    _00184_DS_
0474 EF00 F000 01941         GOTO    _00185_DS_
0478 EF00 F000 01942         GOTO    _00189_DS_
047C EF00 F000 01943         GOTO    _00190_DS_
0480 EF00 F000 01944         GOTO    _00191_DS_
gpasm-0.13.7 beta               Objects/lena.asm10-26-2013  15:30:39         PAGE 37


LOC  OBJECT CODE     LINE SOURCE TEXT
  VALUE
 
0484 EF00 F000 01945         GOTO    _00195_DS_
0488 EF00 F000 01946         GOTO    _00196_DS_
048C 01947 _00180_DS_:
               01948 ;       .line   258; lena.c     sprintf(display, "Do you want to  set the time ?  ");
048C 0E00      01949         MOVLW   HIGH(_display)
048E 6E00      01950         MOVWF   r0x01
0490 0E00      01951         MOVLW   LOW(_display)
0492 6E00      01952         MOVWF   r0x00
0494 0E80      01953         MOVLW   0x80
0496 6E00      01954         MOVWF   r0x02
0498 0E00      01955         MOVLW   UPPER(__str_0)
049A 6EE5      01956         MOVWF   POSTDEC1
049C 0E00      01957         MOVLW   HIGH(__str_0)
049E 6EE5      01958         MOVWF   POSTDEC1
04A0 0E00      01959         MOVLW   LOW(__str_0)
04A2 6EE5      01960         MOVWF   POSTDEC1
04A4 5000      01961         MOVF    r0x02, W
04A6 6EE5      01962         MOVWF   POSTDEC1
04A8 5000      01963         MOVF    r0x01, W
04AA 6EE5      01964         MOVWF   POSTDEC1
04AC 5000      01965         MOVF    r0x00, W
04AE 6EE5      01966         MOVWF   POSTDEC1
04B0 EC00 F000 01967         CALL    _sprintf
04B4 0E06      01968         MOVLW   0x06
04B6 26E1      01969         ADDWF   FSR1L, F
               01970 ;       .line   259; lena.c     break;
04B8 EF00 F000 01971         GOTO    _00201_DS_
04BC 01972 _00181_DS_:
               01973 ;       .line   262; lena.c     thour, tmin, tsec);
04BC C000 F000 01974         MOVFF   _tsec, r0x00
04C0 6A00      01975         CLRF    r0x01
04C2 C000 F000 01976         MOVFF   _tmin, r0x02
04C6 6A00      01977         CLRF    r0x03
04C8 C000 F000 01978         MOVFF   _thour, r0x04
04CC 6A00      01979         CLRF    r0x05
               01980 ;       .line   261; lena.c     sprintf(display, " [%02u]: %02u : %02u                  ",
04CE 0E00      01981         MOVLW   HIGH(_display)
04D0 6E00      01982         MOVWF   r0x07
04D2 0E00      01983         MOVLW   LOW(_display)
04D4 6E00      01984         MOVWF   r0x06
04D6 0E80      01985         MOVLW   0x80
04D8 6E00      01986         MOVWF   r0x08
04DA 5000      01987         MOVF    r0x01, W
04DC 6EE5      01988         MOVWF   POSTDEC1
04DE 5000      01989         MOVF    r0x00, W
04E0 6EE5      01990         MOVWF   POSTDEC1
04E2 5000      01991         MOVF    r0x03, W
04E4 6EE5      01992         MOVWF   POSTDEC1
04E6 5000      01993         MOVF    r0x02, W
04E8 6EE5      01994         MOVWF   POSTDEC1
04EA 5000      01995         MOVF    r0x05, W
04EC 6EE5      01996         MOVWF   POSTDEC1
04EE 5000      01997         MOVF    r0x04, W
04F0 6EE5      01998         MOVWF   POSTDEC1
gpasm-0.13.7 beta               Objects/lena.asm10-26-2013  15:30:39         PAGE 38


LOC  OBJECT CODE     LINE SOURCE TEXT
  VALUE
 
04F2 0E00      01999         MOVLW   UPPER(__str_1)
04F4 6EE5      02000         MOVWF   POSTDEC1
04F6 0E00      02001         MOVLW   HIGH(__str_1)
04F8 6EE5      02002         MOVWF   POSTDEC1
04FA 0E00      02003         MOVLW   LOW(__str_1)
04FC 6EE5      02004         MOVWF   POSTDEC1
04FE 5000      02005         MOVF    r0x08, W
0500 6EE5      02006         MOVWF   POSTDEC1
0502 5000      02007         MOVF    r0x07, W
0504 6EE5      02008         MOVWF   POSTDEC1
0506 5000      02009         MOVF    r0x06, W
0508 6EE5      02010         MOVWF   POSTDEC1
050A EC00 F000 02011         CALL    _sprintf
050E 0E0C      02012         MOVLW   0x0c
0510 26E1      02013         ADDWF   FSR1L, F
               02014 ;       .line   263; lena.c     break;
0512 EF00 F000 02015         GOTO    _00201_DS_
0516 02016 _00182_DS_:
               02017 ;       .line   266; lena.c     thour, tmin, tsec);
0516 C000 F000 02018         MOVFF   _tsec, r0x00
051A 6A00      02019         CLRF    r0x01
051C C000 F000 02020         MOVFF   _tmin, r0x02
0520 6A00      02021         CLRF    r0x03
0522 C000 F000 02022         MOVFF   _thour, r0x04
0526 6A00      02023         CLRF    r0x05
               02024 ;       .line   265; lena.c     sprintf(display, "  %02u :[%02u]: %02u                  ",
0528 0E00      02025         MOVLW   HIGH(_display)
052A 6E00      02026         MOVWF   r0x07
052C 0E00      02027         MOVLW   LOW(_display)
052E 6E00      02028         MOVWF   r0x06
0530 0E80      02029         MOVLW   0x80
0532 6E00      02030         MOVWF   r0x08
0534 5000      02031         MOVF    r0x01, W
0536 6EE5      02032         MOVWF   POSTDEC1
0538 5000      02033         MOVF    r0x00, W
053A 6EE5      02034         MOVWF   POSTDEC1
053C 5000      02035         MOVF    r0x03, W
053E 6EE5      02036         MOVWF   POSTDEC1
0540 5000      02037         MOVF    r0x02, W
0542 6EE5      02038         MOVWF   POSTDEC1
0544 5000      02039         MOVF    r0x05, W
0546 6EE5      02040         MOVWF   POSTDEC1
0548 5000      02041         MOVF    r0x04, W
054A 6EE5      02042         MOVWF   POSTDEC1
054C 0E00      02043         MOVLW   UPPER(__str_2)
054E 6EE5      02044         MOVWF   POSTDEC1
0550 0E00      02045         MOVLW   HIGH(__str_2)
0552 6EE5      02046         MOVWF   POSTDEC1
0554 0E00      02047         MOVLW   LOW(__str_2)
0556 6EE5      02048         MOVWF   POSTDEC1
0558 5000      02049         MOVF    r0x08, W
055A 6EE5      02050         MOVWF   POSTDEC1
055C 5000      02051         MOVF    r0x07, W
055E 6EE5      02052         MOVWF   POSTDEC1
gpasm-0.13.7 beta               Objects/lena.asm10-26-2013  15:30:39         PAGE 39


LOC  OBJECT CODE     LINE SOURCE TEXT
  VALUE
 
0560 5000      02053         MOVF    r0x06, W
0562 6EE5      02054         MOVWF   POSTDEC1
0564 EC00 F000 02055         CALL    _sprintf
0568 0E0C      02056         MOVLW   0x0c
056A 26E1      02057         ADDWF   FSR1L, F
               02058 ;       .line   267; lena.c     break;
056C D000      02059         BRA     _00201_DS_
056E 02060 _00183_DS_:
               02061 ;       .line   270; lena.c     thour, tmin, tsec);
056E C000 F000 02062         MOVFF   _tsec, r0x00
0572 6A00      02063         CLRF    r0x01
0574 C000 F000 02064         MOVFF   _tmin, r0x02
0578 6A00      02065         CLRF    r0x03
057A C000 F000 02066         MOVFF   _thour, r0x04
057E 6A00      02067         CLRF    r0x05
               02068 ;       .line   269; lena.c     sprintf(display, "  %02u : %02u :[%02u]                 ",
0580 0E00      02069         MOVLW   HIGH(_display)
0582 6E00      02070         MOVWF   r0x07
0584 0E00      02071         MOVLW   LOW(_display)
0586 6E00      02072         MOVWF   r0x06
0588 0E80      02073         MOVLW   0x80
058A 6E00      02074         MOVWF   r0x08
058C 5000      02075         MOVF    r0x01, W
058E 6EE5      02076         MOVWF   POSTDEC1
0590 5000      02077         MOVF    r0x00, W
0592 6EE5      02078         MOVWF   POSTDEC1
0594 5000      02079         MOVF    r0x03, W
0596 6EE5      02080         MOVWF   POSTDEC1
0598 5000      02081         MOVF    r0x02, W
059A 6EE5      02082         MOVWF   POSTDEC1
059C 5000      02083         MOVF    r0x05, W
059E 6EE5      02084         MOVWF   POSTDEC1
05A0 5000      02085         MOVF    r0x04, W
05A2 6EE5      02086         MOVWF   POSTDEC1
05A4 0E00      02087         MOVLW   UPPER(__str_3)
05A6 6EE5      02088         MOVWF   POSTDEC1
05A8 0E00      02089         MOVLW   HIGH(__str_3)
05AA 6EE5      02090         MOVWF   POSTDEC1
05AC 0E00      02091         MOVLW   LOW(__str_3)
05AE 6EE5      02092         MOVWF   POSTDEC1
05B0 5000      02093         MOVF    r0x08, W
05B2 6EE5      02094         MOVWF   POSTDEC1
05B4 5000      02095         MOVF    r0x07, W
05B6 6EE5      02096         MOVWF   POSTDEC1
05B8 5000      02097         MOVF    r0x06, W
05BA 6EE5      02098         MOVWF   POSTDEC1
05BC EC00 F000 02099         CALL    _sprintf
05C0 0E0C      02100         MOVLW   0x0c
05C2 26E1      02101         ADDWF   FSR1L, F
               02102 ;       .line   271; lena.c     break;
05C4 D000      02103         BRA     _00201_DS_
05C6 02104 _00184_DS_:
               02105 ;       .line   273; lena.c     sprintf(display, "Do you want to  set the alarm ? ");
05C6 0E00      02106         MOVLW   HIGH(_display)
gpasm-0.13.7 beta               Objects/lena.asm10-26-2013  15:30:39         PAGE 40


LOC  OBJECT CODE     LINE SOURCE TEXT
  VALUE
 
05C8 6E00      02107         MOVWF   r0x01
05CA 0E00      02108         MOVLW   LOW(_display)
05CC 6E00      02109         MOVWF   r0x00
05CE 0E80      02110         MOVLW   0x80
05D0 6E00      02111         MOVWF   r0x02
05D2 0E00      02112         MOVLW   UPPER(__str_4)
05D4 6EE5      02113         MOVWF   POSTDEC1
05D6 0E00      02114         MOVLW   HIGH(__str_4)
05D8 6EE5      02115         MOVWF   POSTDEC1
05DA 0E00      02116         MOVLW   LOW(__str_4)
05DC 6EE5      02117         MOVWF   POSTDEC1
05DE 5000      02118         MOVF    r0x02, W
05E0 6EE5      02119         MOVWF   POSTDEC1
05E2 5000      02120         MOVF    r0x01, W
05E4 6EE5      02121         MOVWF   POSTDEC1
05E6 5000      02122         MOVF    r0x00, W
05E8 6EE5      02123         MOVWF   POSTDEC1
05EA EC00 F000 02124         CALL    _sprintf
05EE 0E06      02125         MOVLW   0x06
05F0 26E1      02126         ADDWF   FSR1L, F
               02127 ;       .line   274; lena.c     break;
05F2 D000      02128         BRA     _00201_DS_
05F4 02129 _00185_DS_:
05F4 0000      02130         BANKSEL _alarm_set
               02131 ;       .line   276; lena.c     if (alarm_set) {
05F6 5100      02132         MOVF    _alarm_set, W, B
05F8 E000      02133         BZ      _00187_DS_
               02134 ;       .line   277; lena.c     sprintf(display, "  Alarm [ON ]                   ");
05FA 0E00      02135         MOVLW   HIGH(_display)
05FC 6E00      02136         MOVWF   r0x01
05FE 0E00      02137         MOVLW   LOW(_display)
0600 6E00      02138         MOVWF   r0x00
0602 0E80      02139         MOVLW   0x80
0604 6E00      02140         MOVWF   r0x02
0606 0E00      02141         MOVLW   UPPER(__str_5)
0608 6EE5      02142         MOVWF   POSTDEC1
060A 0E00      02143         MOVLW   HIGH(__str_5)
060C 6EE5      02144         MOVWF   POSTDEC1
060E 0E00      02145         MOVLW   LOW(__str_5)
0610 6EE5      02146         MOVWF   POSTDEC1
0612 5000      02147         MOVF    r0x02, W
0614 6EE5      02148         MOVWF   POSTDEC1
0616 5000      02149         MOVF    r0x01, W
0618 6EE5      02150         MOVWF   POSTDEC1
061A 5000      02151         MOVF    r0x00, W
061C 6EE5      02152         MOVWF   POSTDEC1
061E EC00 F000 02153         CALL    _sprintf
0622 0E06      02154         MOVLW   0x06
0624 26E1      02155         ADDWF   FSR1L, F
0626 D000      02156         BRA     _00201_DS_
0628 02157 _00187_DS_:
               02158 ;       .line   279; lena.c     sprintf(display, "  Alarm [OFF]                   ");
0628 0E00      02159         MOVLW   HIGH(_display)
062A 6E00      02160         MOVWF   r0x01
gpasm-0.13.7 beta               Objects/lena.asm10-26-2013  15:30:39         PAGE 41


LOC  OBJECT CODE     LINE SOURCE TEXT
  VALUE
 
062C 0E00      02161         MOVLW   LOW(_display)
062E 6E00      02162         MOVWF   r0x00
0630 0E80      02163         MOVLW   0x80
0632 6E00      02164         MOVWF   r0x02
0634 0E00      02165         MOVLW   UPPER(__str_6)
0636 6EE5      02166         MOVWF   POSTDEC1
0638 0E00      02167         MOVLW   HIGH(__str_6)
063A 6EE5      02168         MOVWF   POSTDEC1
063C 0E00      02169         MOVLW   LOW(__str_6)
063E 6EE5      02170         MOVWF   POSTDEC1
0640 5000      02171         MOVF    r0x02, W
0642 6EE5      02172         MOVWF   POSTDEC1
0644 5000      02173         MOVF    r0x01, W
0646 6EE5      02174         MOVWF   POSTDEC1
0648 5000      02175         MOVF    r0x00, W
064A 6EE5      02176         MOVWF   POSTDEC1
064C EC00 F000 02177         CALL    _sprintf
0650 0E06      02178         MOVLW   0x06
0652 26E1      02179         ADDWF   FSR1L, F
               02180 ;       .line   281; lena.c     break;
0654 D000      02181         BRA     _00201_DS_
0656 02182 _00189_DS_:
               02183 ;       .line   284; lena.c     ahour, amin);
0656 C000 F000 02184         MOVFF   _amin, r0x00
065A 6A00      02185         CLRF    r0x01
065C C000 F000 02186         MOVFF   _ahour, r0x02
0660 6A00      02187         CLRF    r0x03
               02188 ;       .line   283; lena.c     sprintf(display, "    Alarm at        [%02u]: %02u    ",
0662 0E00      02189         MOVLW   HIGH(_display)
0664 6E00      02190         MOVWF   r0x05
0666 0E00      02191         MOVLW   LOW(_display)
0668 6E00      02192         MOVWF   r0x04
066A 0E80      02193         MOVLW   0x80
066C 6E00      02194         MOVWF   r0x06
066E 5000      02195         MOVF    r0x01, W
0670 6EE5      02196         MOVWF   POSTDEC1
0672 5000      02197         MOVF    r0x00, W
0674 6EE5      02198         MOVWF   POSTDEC1
0676 5000      02199         MOVF    r0x03, W
0678 6EE5      02200         MOVWF   POSTDEC1
067A 5000      02201         MOVF    r0x02, W
067C 6EE5      02202         MOVWF   POSTDEC1
067E 0E00      02203         MOVLW   UPPER(__str_7)
0680 6EE5      02204         MOVWF   POSTDEC1
0682 0E00      02205         MOVLW   HIGH(__str_7)
0684 6EE5      02206         MOVWF   POSTDEC1
0686 0E00      02207         MOVLW   LOW(__str_7)
0688 6EE5      02208         MOVWF   POSTDEC1
068A 5000      02209         MOVF    r0x06, W
068C 6EE5      02210         MOVWF   POSTDEC1
068E 5000      02211         MOVF    r0x05, W
0690 6EE5      02212         MOVWF   POSTDEC1
0692 5000      02213         MOVF    r0x04, W
0694 6EE5      02214         MOVWF   POSTDEC1
gpasm-0.13.7 beta               Objects/lena.asm10-26-2013  15:30:39         PAGE 42


LOC  OBJECT CODE     LINE SOURCE TEXT
  VALUE
 
0696 EC00 F000 02215         CALL    _sprintf
069A 0E0A      02216         MOVLW   0x0a
069C 26E1      02217         ADDWF   FSR1L, F
               02218 ;       .line   285; lena.c     break;
069E D000      02219         BRA     _00201_DS_
06A0 02220 _00190_DS_:
               02221 ;       .line   288; lena.c     ahour, amin);
06A0 C000 F000 02222         MOVFF   _amin, r0x00
06A4 6A00      02223         CLRF    r0x01
06A6 C000 F000 02224         MOVFF   _ahour, r0x02
06AA 6A00      02225         CLRF    r0x03
               02226 ;       .line   287; lena.c     sprintf(display, "    Alarm at         %02u :[%02u]   ",
06AC 0E00      02227         MOVLW   HIGH(_display)
06AE 6E00      02228         MOVWF   r0x05
06B0 0E00      02229         MOVLW   LOW(_display)
06B2 6E00      02230         MOVWF   r0x04
06B4 0E80      02231         MOVLW   0x80
06B6 6E00      02232         MOVWF   r0x06
06B8 5000      02233         MOVF    r0x01, W
06BA 6EE5      02234         MOVWF   POSTDEC1
06BC 5000      02235         MOVF    r0x00, W
06BE 6EE5      02236         MOVWF   POSTDEC1
06C0 5000      02237         MOVF    r0x03, W
06C2 6EE5      02238         MOVWF   POSTDEC1
06C4 5000      02239         MOVF    r0x02, W
06C6 6EE5      02240         MOVWF   POSTDEC1
06C8 0E00      02241         MOVLW   UPPER(__str_8)
06CA 6EE5      02242         MOVWF   POSTDEC1
06CC 0E00      02243         MOVLW   HIGH(__str_8)
06CE 6EE5      02244         MOVWF   POSTDEC1
06D0 0E00      02245         MOVLW   LOW(__str_8)
06D2 6EE5      02246         MOVWF   POSTDEC1
06D4 5000      02247         MOVF    r0x06, W
06D6 6EE5      02248         MOVWF   POSTDEC1
06D8 5000      02249         MOVF    r0x05, W
06DA 6EE5      02250         MOVWF   POSTDEC1
06DC 5000      02251         MOVF    r0x04, W
06DE 6EE5      02252         MOVWF   POSTDEC1
06E0 EC00 F000 02253         CALL    _sprintf
06E4 0E0A      02254         MOVLW   0x0a
06E6 26E1      02255         ADDWF   FSR1L, F
               02256 ;       .line   289; lena.c     break;
06E8 D000      02257         BRA     _00201_DS_
06EA 02258 _00191_DS_:
06EA 0000      02259         BANKSEL _alarm_set
               02260 ;       .line   291; lena.c     if (alarm_set) {
06EC 5100      02261         MOVF    _alarm_set, W, B
06EE E000      02262         BZ      _00193_DS_
               02263 ;       .line   293; lena.c     thour, tmin, tsec, ahour, amin);
06F0 C000 F000 02264         MOVFF   _amin, r0x00
06F4 6A00      02265         CLRF    r0x01
06F6 C000 F000 02266         MOVFF   _ahour, r0x02
06FA 6A00      02267         CLRF    r0x03
06FC C000 F000 02268         MOVFF   _tsec, r0x04
gpasm-0.13.7 beta               Objects/lena.asm10-26-2013  15:30:39         PAGE 43


LOC  OBJECT CODE     LINE SOURCE TEXT
  VALUE
 
0700 6A00      02269         CLRF    r0x05
0702 C000 F000 02270         MOVFF   _tmin, r0x06
0706 6A00      02271         CLRF    r0x07
0708 C000 F000 02272         MOVFF   _thour, r0x08
070C 6A00      02273         CLRF    r0x09
               02274 ;       .line   292; lena.c     sprintf(display, "    %02u:%02u:%02u    Alarm ON  %02u:%02u ",
070E 0E00      02275         MOVLW   HIGH(_display)
0710 6E00      02276         MOVWF   r0x0b
0712 0E00      02277         MOVLW   LOW(_display)
0714 6E00      02278         MOVWF   r0x0a
0716 0E80      02279         MOVLW   0x80
0718 6E00      02280         MOVWF   r0x0c
071A 5000      02281         MOVF    r0x01, W
071C 6EE5      02282         MOVWF   POSTDEC1
071E 5000      02283         MOVF    r0x00, W
0720 6EE5      02284         MOVWF   POSTDEC1
0722 5000      02285         MOVF    r0x03, W
0724 6EE5      02286         MOVWF   POSTDEC1
0726 5000      02287         MOVF    r0x02, W
0728 6EE5      02288         MOVWF   POSTDEC1
072A 5000      02289         MOVF    r0x05, W
072C 6EE5      02290         MOVWF   POSTDEC1
072E 5000      02291         MOVF    r0x04, W
0730 6EE5      02292         MOVWF   POSTDEC1
0732 5000      02293         MOVF    r0x07, W
0734 6EE5      02294         MOVWF   POSTDEC1
0736 5000      02295         MOVF    r0x06, W
0738 6EE5      02296         MOVWF   POSTDEC1
073A 5000      02297         MOVF    r0x09, W
073C 6EE5      02298         MOVWF   POSTDEC1
073E 5000      02299         MOVF    r0x08, W
0740 6EE5      02300         MOVWF   POSTDEC1
0742 0E00      02301         MOVLW   UPPER(__str_9)
0744 6EE5      02302         MOVWF   POSTDEC1
0746 0E00      02303         MOVLW   HIGH(__str_9)
0748 6EE5      02304         MOVWF   POSTDEC1
074A 0E00      02305         MOVLW   LOW(__str_9)
074C 6EE5      02306         MOVWF   POSTDEC1
074E 5000      02307         MOVF    r0x0c, W
0750 6EE5      02308         MOVWF   POSTDEC1
0752 5000      02309         MOVF    r0x0b, W
0754 6EE5      02310         MOVWF   POSTDEC1
0756 5000      02311         MOVF    r0x0a, W
0758 6EE5      02312         MOVWF   POSTDEC1
075A EC00 F000 02313         CALL    _sprintf
075E 0E10      02314         MOVLW   0x10
0760 26E1      02315         ADDWF   FSR1L, F
0762 D000      02316         BRA     _00201_DS_
0764 02317 _00193_DS_:
               02318 ;       .line   296; lena.c     thour, tmin, tsec);
0764 C000 F000 02319         MOVFF   _tsec, r0x00
0768 6A00      02320         CLRF    r0x01
076A C000 F000 02321         MOVFF   _tmin, r0x02
076E 6A00      02322         CLRF    r0x03
gpasm-0.13.7 beta               Objects/lena.asm10-26-2013  15:30:39         PAGE 44


LOC  OBJECT CODE     LINE SOURCE TEXT
  VALUE
 
0770 C000 F000 02323         MOVFF   _thour, r0x04
0774 6A00      02324         CLRF    r0x05
               02325 ;       .line   295; lena.c     sprintf(display, "    %02u:%02u:%02u       Alarm  OFF   ",
0776 0E00      02326         MOVLW   HIGH(_display)
0778 6E00      02327         MOVWF   r0x07
077A 0E00      02328         MOVLW   LOW(_display)
077C 6E00      02329         MOVWF   r0x06
077E 0E80      02330         MOVLW   0x80
0780 6E00      02331         MOVWF   r0x08
0782 5000      02332         MOVF    r0x01, W
0784 6EE5      02333         MOVWF   POSTDEC1
0786 5000      02334         MOVF    r0x00, W
0788 6EE5      02335         MOVWF   POSTDEC1
078A 5000      02336         MOVF    r0x03, W
078C 6EE5      02337         MOVWF   POSTDEC1
078E 5000      02338         MOVF    r0x02, W
0790 6EE5      02339         MOVWF   POSTDEC1
0792 5000      02340         MOVF    r0x05, W
0794 6EE5      02341         MOVWF   POSTDEC1
0796 5000      02342         MOVF    r0x04, W
0798 6EE5      02343         MOVWF   POSTDEC1
079A 0E00      02344         MOVLW   UPPER(__str_10)
079C 6EE5      02345         MOVWF   POSTDEC1
079E 0E00      02346         MOVLW   HIGH(__str_10)
07A0 6EE5      02347         MOVWF   POSTDEC1
07A2 0E00      02348         MOVLW   LOW(__str_10)
07A4 6EE5      02349         MOVWF   POSTDEC1
07A6 5000      02350         MOVF    r0x08, W
07A8 6EE5      02351         MOVWF   POSTDEC1
07AA 5000      02352         MOVF    r0x07, W
07AC 6EE5      02353         MOVWF   POSTDEC1
07AE 5000      02354         MOVF    r0x06, W
07B0 6EE5      02355         MOVWF   POSTDEC1
07B2 EC00 F000 02356         CALL    _sprintf
07B6 0E0C      02357         MOVLW   0x0c
07B8 26E1      02358         ADDWF   FSR1L, F
               02359 ;       .line   298; lena.c     break;
07BA D000      02360         BRA     _00201_DS_
07BC 02361 _00195_DS_:
               02362 ;       .line   301; lena.c     thour, tmin, tsec); // ***blink***
07BC C000 F000 02363         MOVFF   _tsec, r0x00
07C0 6A00      02364         CLRF    r0x01
07C2 C000 F000 02365         MOVFF   _tmin, r0x02
07C6 6A00      02366         CLRF    r0x03
07C8 C000 F000 02367         MOVFF   _thour, r0x04
07CC 6A00      02368         CLRF    r0x05
               02369 ;       .line   300; lena.c     sprintf(display, "    %02u:%02u:%02u      I am ringing! ",
07CE 0E00      02370         MOVLW   HIGH(_display)
07D0 6E00      02371         MOVWF   r0x07
07D2 0E00      02372         MOVLW   LOW(_display)
07D4 6E00      02373         MOVWF   r0x06
07D6 0E80      02374         MOVLW   0x80
07D8 6E00      02375         MOVWF   r0x08
07DA 5000      02376         MOVF    r0x01, W
gpasm-0.13.7 beta               Objects/lena.asm10-26-2013  15:30:39         PAGE 45


LOC  OBJECT CODE     LINE SOURCE TEXT
  VALUE
 
07DC 6EE5      02377         MOVWF   POSTDEC1
07DE 5000      02378         MOVF    r0x00, W
07E0 6EE5      02379         MOVWF   POSTDEC1
07E2 5000      02380         MOVF    r0x03, W
07E4 6EE5      02381         MOVWF   POSTDEC1
07E6 5000      02382         MOVF    r0x02, W
07E8 6EE5      02383         MOVWF   POSTDEC1
07EA 5000      02384         MOVF    r0x05, W
07EC 6EE5      02385         MOVWF   POSTDEC1
07EE 5000      02386         MOVF    r0x04, W
07F0 6EE5      02387         MOVWF   POSTDEC1
07F2 0E00      02388         MOVLW   UPPER(__str_11)
07F4 6EE5      02389         MOVWF   POSTDEC1
07F6 0E00      02390         MOVLW   HIGH(__str_11)
07F8 6EE5      02391         MOVWF   POSTDEC1
07FA 0E00      02392         MOVLW   LOW(__str_11)
07FC 6EE5      02393         MOVWF   POSTDEC1
07FE 5000      02394         MOVF    r0x08, W
0800 6EE5      02395         MOVWF   POSTDEC1
0802 5000      02396         MOVF    r0x07, W
0804 6EE5      02397         MOVWF   POSTDEC1
0806 5000      02398         MOVF    r0x06, W
0808 6EE5      02399         MOVWF   POSTDEC1
080A EC00 F000 02400         CALL    _sprintf
080E 0E0C      02401         MOVLW   0x0c
0810 26E1      02402         ADDWF   FSR1L, F
               02403 ;       .line   302; lena.c     break;
0812 D000      02404         BRA     _00201_DS_
0814 02405 _00196_DS_:
               02406 ;       .line   304; lena.c     if (snooze < 10) {
0814 0E0A      02407         MOVLW   0x0a
0816 0000      02408         BANKSEL _snooze
0818 5D00      02409         SUBWF   _snooze, W, B
081A B0D8      02410         BTFSC   STATUS, 0
081C D000      02411         BRA     _00198_DS_
               02412 ;       .line   306; lena.c     thour, tmin, tsec, snooze, ahour_o, amin_o);
081E C000 F000 02413         MOVFF   _amin_o, r0x00
0822 6A00      02414         CLRF    r0x01
0824 C000 F000 02415         MOVFF   _ahour_o, r0x02
0828 6A00      02416         CLRF    r0x03
082A C000 F000 02417         MOVFF   _snooze, r0x04
082E 6A00      02418         CLRF    r0x05
0830 C000 F000 02419         MOVFF   _tsec, r0x06
0834 6A00      02420         CLRF    r0x07
0836 C000 F000 02421         MOVFF   _tmin, r0x08
083A 6A00      02422         CLRF    r0x09
083C C000 F000 02423         MOVFF   _thour, r0x0a
0840 6A00      02424         CLRF    r0x0b
               02425 ;       .line   305; lena.c     sprintf(display, "    %02u:%02u:%02u    Snooze %u  %02u:%02u ",
0842 0E00      02426         MOVLW   HIGH(_display)
0844 6E00      02427         MOVWF   r0x0d
0846 0E00      02428         MOVLW   LOW(_display)
0848 6E00      02429         MOVWF   r0x0c
084A 0E80      02430         MOVLW   0x80
gpasm-0.13.7 beta               Objects/lena.asm10-26-2013  15:30:39         PAGE 46


LOC  OBJECT CODE     LINE SOURCE TEXT
  VALUE
 
084C 6E00      02431         MOVWF   r0x0e
084E 5000      02432         MOVF    r0x01, W
0850 6EE5      02433         MOVWF   POSTDEC1
0852 5000      02434         MOVF    r0x00, W
0854 6EE5      02435         MOVWF   POSTDEC1
0856 5000      02436         MOVF    r0x03, W
0858 6EE5      02437         MOVWF   POSTDEC1
085A 5000      02438         MOVF    r0x02, W
085C 6EE5      02439         MOVWF   POSTDEC1
085E 5000      02440         MOVF    r0x05, W
0860 6EE5      02441         MOVWF   POSTDEC1
0862 5000      02442         MOVF    r0x04, W
0864 6EE5      02443         MOVWF   POSTDEC1
0866 5000      02444         MOVF    r0x07, W
0868 6EE5      02445         MOVWF   POSTDEC1
086A 5000      02446         MOVF    r0x06, W
086C 6EE5      02447         MOVWF   POSTDEC1
086E 5000      02448         MOVF    r0x09, W
0870 6EE5      02449         MOVWF   POSTDEC1
0872 5000      02450         MOVF    r0x08, W
0874 6EE5      02451         MOVWF   POSTDEC1
0876 5000      02452         MOVF    r0x0b, W
0878 6EE5      02453         MOVWF   POSTDEC1
087A 5000      02454         MOVF    r0x0a, W
087C 6EE5      02455         MOVWF   POSTDEC1
087E 0E00      02456         MOVLW   UPPER(__str_12)
0880 6EE5      02457         MOVWF   POSTDEC1
0882 0E00      02458         MOVLW   HIGH(__str_12)
0884 6EE5      02459         MOVWF   POSTDEC1
0886 0E00      02460         MOVLW   LOW(__str_12)
0888 6EE5      02461         MOVWF   POSTDEC1
088A 5000      02462         MOVF    r0x0e, W
088C 6EE5      02463         MOVWF   POSTDEC1
088E 5000      02464         MOVF    r0x0d, W
0890 6EE5      02465         MOVWF   POSTDEC1
0892 5000      02466         MOVF    r0x0c, W
0894 6EE5      02467         MOVWF   POSTDEC1
0896 EC00 F000 02468         CALL    _sprintf
089A 0E12      02469         MOVLW   0x12
089C 26E1      02470         ADDWF   FSR1L, F
089E D000      02471         BRA     _00201_DS_
08A0 02472 _00198_DS_:
               02473 ;       .line   309; lena.c     thour, tmin, tsec, snooze, ahour_o, amin_o);
08A0 C000 F000 02474         MOVFF   _amin_o, r0x00
08A4 6A00      02475         CLRF    r0x01
08A6 C000 F000 02476         MOVFF   _ahour_o, r0x02
08AA 6A00      02477         CLRF    r0x03
08AC C000 F000 02478         MOVFF   _snooze, r0x04
08B0 6A00      02479         CLRF    r0x05
08B2 C000 F000 02480         MOVFF   _tsec, r0x06
08B6 6A00      02481         CLRF    r0x07
08B8 C000 F000 02482         MOVFF   _tmin, r0x08
08BC 6A00      02483         CLRF    r0x09
08BE C000 F000 02484         MOVFF   _thour, r0x0a
gpasm-0.13.7 beta               Objects/lena.asm10-26-2013  15:30:39         PAGE 47


LOC  OBJECT CODE     LINE SOURCE TEXT
  VALUE
 
08C2 6A00      02485         CLRF    r0x0b
               02486 ;       .line   308; lena.c     sprintf(display, "    %02u:%02u:%02u    Snooze %u %02u:%02u ",
08C4 0E00      02487         MOVLW   HIGH(_display)
08C6 6E00      02488         MOVWF   r0x0d
08C8 0E00      02489         MOVLW   LOW(_display)
08CA 6E00      02490         MOVWF   r0x0c
08CC 0E80      02491         MOVLW   0x80
08CE 6E00      02492         MOVWF   r0x0e
08D0 5000      02493         MOVF    r0x01, W
08D2 6EE5      02494         MOVWF   POSTDEC1
08D4 5000      02495         MOVF    r0x00, W
08D6 6EE5      02496         MOVWF   POSTDEC1
08D8 5000      02497         MOVF    r0x03, W
08DA 6EE5      02498         MOVWF   POSTDEC1
08DC 5000      02499         MOVF    r0x02, W
08DE 6EE5      02500         MOVWF   POSTDEC1
08E0 5000      02501         MOVF    r0x05, W
08E2 6EE5      02502         MOVWF   POSTDEC1
08E4 5000      02503         MOVF    r0x04, W
08E6 6EE5      02504         MOVWF   POSTDEC1
08E8 5000      02505         MOVF    r0x07, W
08EA 6EE5      02506         MOVWF   POSTDEC1
08EC 5000      02507         MOVF    r0x06, W
08EE 6EE5      02508         MOVWF   POSTDEC1
08F0 5000      02509         MOVF    r0x09, W
08F2 6EE5      02510         MOVWF   POSTDEC1
08F4 5000      02511         MOVF    r0x08, W
08F6 6EE5      02512         MOVWF   POSTDEC1
08F8 5000      02513         MOVF    r0x0b, W
08FA 6EE5      02514         MOVWF   POSTDEC1
08FC 5000      02515         MOVF    r0x0a, W
08FE 6EE5      02516         MOVWF   POSTDEC1
0900 0E00      02517         MOVLW   UPPER(__str_13)
0902 6EE5      02518         MOVWF   POSTDEC1
0904 0E00      02519         MOVLW   HIGH(__str_13)
0906 6EE5      02520         MOVWF   POSTDEC1
0908 0E00      02521         MOVLW   LOW(__str_13)
090A 6EE5      02522         MOVWF   POSTDEC1
090C 5000      02523         MOVF    r0x0e, W
090E 6EE5      02524         MOVWF   POSTDEC1
0910 5000      02525         MOVF    r0x0d, W
0912 6EE5      02526         MOVWF   POSTDEC1
0914 5000      02527         MOVF    r0x0c, W
0916 6EE5      02528         MOVWF   POSTDEC1
0918 EC00 F000 02529         CALL    _sprintf
091C 0E12      02530         MOVLW   0x12
091E 26E1      02531         ADDWF   FSR1L, F
               02532 ;       .line   312; lena.c     break;
0920 D000      02533         BRA     _00201_DS_
0922 02534 _00200_DS_:
               02535 ;       .line   314; lena.c     sprintf(display, "**** ERROR ********* ERROR *****");
0922 0E00      02536         MOVLW   HIGH(_display)
0924 6E00      02537         MOVWF   r0x01
0926 0E00      02538         MOVLW   LOW(_display)
gpasm-0.13.7 beta               Objects/lena.asm10-26-2013  15:30:39         PAGE 48


LOC  OBJECT CODE     LINE SOURCE TEXT
  VALUE
 
0928 6E00      02539         MOVWF   r0x00
092A 0E80      02540         MOVLW   0x80
092C 6E00      02541         MOVWF   r0x02
092E 0E00      02542         MOVLW   UPPER(__str_14)
0930 6EE5      02543         MOVWF   POSTDEC1
0932 0E00      02544         MOVLW   HIGH(__str_14)
0934 6EE5      02545         MOVWF   POSTDEC1
0936 0E00      02546         MOVLW   LOW(__str_14)
0938 6EE5      02547         MOVWF   POSTDEC1
093A 5000      02548         MOVF    r0x02, W
093C 6EE5      02549         MOVWF   POSTDEC1
093E 5000      02550         MOVF    r0x01, W
0940 6EE5      02551         MOVWF   POSTDEC1
0942 5000      02552         MOVF    r0x00, W
0944 6EE5      02553         MOVWF   POSTDEC1
0946 EC00 F000 02554         CALL    _sprintf
094A 0E06      02555         MOVLW   0x06
094C 26E1      02556         ADDWF   FSR1L, F
094E 02557 _00201_DS_:
               02558 ;       .line   317; lena.c     DisplayString(0, display);
094E 0E00      02559         MOVLW   HIGH(_display)
0950 6E00      02560         MOVWF   r0x01
0952 0E00      02561         MOVLW   LOW(_display)
0954 6E00      02562         MOVWF   r0x00
0956 0E80      02563         MOVLW   0x80
0958 6E00      02564         MOVWF   r0x02
095A 5000      02565         MOVF    r0x02, W
095C 6EE5      02566         MOVWF   POSTDEC1
095E 5000      02567         MOVF    r0x01, W
0960 6EE5      02568         MOVWF   POSTDEC1
0962 5000      02569         MOVF    r0x00, W
0964 6EE5      02570         MOVWF   POSTDEC1
0966 0E00      02571         MOVLW   0x00
0968 6EE5      02572         MOVWF   POSTDEC1
096A EC00 F000 02573         CALL    _DisplayString
096E 0E04      02574         MOVLW   0x04
0970 26E1      02575         ADDWF   FSR1L, F
0972 CFE4 F000 02576         MOVFF   PREINC1, r0x0e
0976 CFE4 F000 02577         MOVFF   PREINC1, r0x0d
097A CFE4 F000 02578         MOVFF   PREINC1, r0x0c
097E CFE4 F000 02579         MOVFF   PREINC1, r0x0b
0982 CFE4 F000 02580         MOVFF   PREINC1, r0x0a
0986 CFE4 F000 02581         MOVFF   PREINC1, r0x09
098A CFE4 F000 02582         MOVFF   PREINC1, r0x08
098E CFE4 F000 02583         MOVFF   PREINC1, r0x07
0992 CFE4 F000 02584         MOVFF   PREINC1, r0x06
0996 CFE4 F000 02585         MOVFF   PREINC1, r0x05
099A CFE4 F000 02586         MOVFF   PREINC1, r0x04
099E CFE4 F000 02587         MOVFF   PREINC1, r0x03
09A2 CFE4 F000 02588         MOVFF   PREINC1, r0x02
09A6 CFE4 F000 02589         MOVFF   PREINC1, r0x01
09AA CFE4 F000 02590         MOVFF   PREINC1, r0x00
09AE CFE4 FFD9 02591         MOVFF   PREINC1, FSR2L
09B2 0012      02592         RETURN  
gpasm-0.13.7 beta               Objects/lena.asm10-26-2013  15:30:39         PAGE 49


LOC  OBJECT CODE     LINE SOURCE TEXT
  VALUE
 
               02593 
               02594 ; ; Starting pCode block
               02595 S_lena__dec_amin        code
0000 02596 _dec_amin:
               02597 ;       .line   212; lena.c     void dec_amin(BYTE val)
0000 CFD9 FFE5 02598         MOVFF   FSR2L, POSTDEC1
0004 CFE1 FFD9 02599         MOVFF   FSR1L, FSR2L
0008 C000 FFE5 02600         MOVFF   r0x00, POSTDEC1
000C C000 FFE5 02601         MOVFF   r0x01, POSTDEC1
0010 0E02      02602         MOVLW   0x02
0012 CFDB F000 02603         MOVFF   PLUSW2, r0x00
               02604 ;       .line   215; lena.c     if (val > amin) {
0016 5000      02605         MOVF    r0x00, W
0018 0000      02606         BANKSEL _amin
001A 5D00      02607         SUBWF   _amin, W, B
001C E200      02608         BC      _00154_DS_
               02609 ;       .line   216; lena.c     dec_ahour(1);
001E 0E01      02610         MOVLW   0x01
0020 6EE5      02611         MOVWF   POSTDEC1
0022 EC00 F000 02612         CALL    _dec_ahour
0026 2AE1      02613         INCF    FSR1L, F
               02614 ;       .line   217; lena.c     amin = (60+amin) - val;
0028 0E3C      02615         MOVLW   0x3c
002A 0000      02616         BANKSEL _amin
002C 2500      02617         ADDWF   _amin, W, B
002E 6E00      02618         MOVWF   r0x01
0030 5000      02619         MOVF    r0x00, W
0032 5C00      02620         SUBWF   r0x01, W
0034 0000      02621         BANKSEL _amin
0036 6F00      02622         MOVWF   _amin, B
0038 D000      02623         BRA     _00156_DS_
003A 02624 _00154_DS_:
               02625 ;       .line   219; lena.c     amin  = amin - val;
003A 5000      02626         MOVF    r0x00, W
003C 0000      02627         BANKSEL _amin
003E 5F00      02628         SUBWF   _amin, F, B
0040 02629 _00156_DS_:
0040 CFE4 F000 02630         MOVFF   PREINC1, r0x01
0044 CFE4 F000 02631         MOVFF   PREINC1, r0x00
0048 CFE4 FFD9 02632         MOVFF   PREINC1, FSR2L
004C 0012      02633         RETURN  
               02634 
               02635 ; ; Starting pCode block
               02636 S_lena__dec_ahour       code
0000 02637 _dec_ahour:
               02638 ;       .line   200; lena.c     void dec_ahour(BYTE val)
0000 CFD9 FFE5 02639         MOVFF   FSR2L, POSTDEC1
0004 CFE1 FFD9 02640         MOVFF   FSR1L, FSR2L
0008 C000 FFE5 02641         MOVFF   r0x00, POSTDEC1
000C C000 FFE5 02642         MOVFF   r0x01, POSTDEC1
0010 0E02      02643         MOVLW   0x02
0012 CFDB F000 02644         MOVFF   PLUSW2, r0x00
               02645 ;       .line   203; lena.c     if (val > ahour) {
0016 5000      02646         MOVF    r0x00, W
gpasm-0.13.7 beta               Objects/lena.asm10-26-2013  15:30:39         PAGE 50


LOC  OBJECT CODE     LINE SOURCE TEXT
  VALUE
 
0018 0000      02647         BANKSEL _ahour
001A 5D00      02648         SUBWF   _ahour, W, B
001C E200      02649         BC      _00143_DS_
               02650 ;       .line   204; lena.c     ahour = (24+ahour) - val;
001E 0E18      02651         MOVLW   0x18
0020 0000      02652         BANKSEL _ahour
0022 2500      02653         ADDWF   _ahour, W, B
0024 6E00      02654         MOVWF   r0x01
0026 5000      02655         MOVF    r0x00, W
0028 5C00      02656         SUBWF   r0x01, W
002A 0000      02657         BANKSEL _ahour
002C 6F00      02658         MOVWF   _ahour, B
002E D000      02659         BRA     _00145_DS_
0030 02660 _00143_DS_:
               02661 ;       .line   206; lena.c     ahour = ahour - val;
0030 5000      02662         MOVF    r0x00, W
0032 0000      02663         BANKSEL _ahour
0034 5F00      02664         SUBWF   _ahour, F, B
0036 02665 _00145_DS_:
0036 CFE4 F000 02666         MOVFF   PREINC1, r0x01
003A CFE4 F000 02667         MOVFF   PREINC1, r0x00
003E CFE4 FFD9 02668         MOVFF   PREINC1, FSR2L
0042 0012      02669         RETURN  
               02670 
               02671 ; ; Starting pCode block
               02672 S_lena__inc_amin        code
0000 02673 _inc_amin:
               02674 ;       .line   187; lena.c     void inc_amin(BYTE val)
0000 CFD9 FFE5 02675         MOVFF   FSR2L, POSTDEC1
0004 CFE1 FFD9 02676         MOVFF   FSR1L, FSR2L
0008 C000 FFE5 02677         MOVFF   r0x00, POSTDEC1
000C C000 FFE5 02678         MOVFF   r0x01, POSTDEC1
0010 C000 FFE5 02679         MOVFF   r0x02, POSTDEC1
0014 C000 FFE5 02680         MOVFF   r0x03, POSTDEC1
0018 0E02      02681         MOVLW   0x02
001A CFDB F000 02682         MOVFF   PLUSW2, r0x00
               02683 ;       .line   191; lena.c     mod_amin = (amin + val) / 60;
001E C000 F000 02684         MOVFF   _amin, r0x01
0022 6A00      02685         CLRF    r0x02
0024 6A00      02686         CLRF    r0x03
0026 5000      02687         MOVF    r0x00, W
0028 2600      02688         ADDWF   r0x01, F
002A 5000      02689         MOVF    r0x03, W
002C 2200      02690         ADDWFC  r0x02, F
002E 0E00      02691         MOVLW   0x00
0030 6EE5      02692         MOVWF   POSTDEC1
0032 0E3C      02693         MOVLW   0x3c
0034 6EE5      02694         MOVWF   POSTDEC1
0036 5000      02695         MOVF    r0x02, W
0038 6EE5      02696         MOVWF   POSTDEC1
003A 5000      02697         MOVF    r0x01, W
003C 6EE5      02698         MOVWF   POSTDEC1
003E EC00 F000 02699         CALL    __divsint
0042 6E00      02700         MOVWF   r0x01
gpasm-0.13.7 beta               Objects/lena.asm10-26-2013  15:30:39         PAGE 51


LOC  OBJECT CODE     LINE SOURCE TEXT
  VALUE
 
0044 CFF3 F000 02701         MOVFF   PRODL, r0x02
0048 0E04      02702         MOVLW   0x04
004A 26E1      02703         ADDWF   FSR1L, F
               02704 ;       .line   192; lena.c     if (mod_amin) {
004C 5000      02705         MOVF    r0x01, W
004E E000      02706         BZ      _00136_DS_
               02707 ;       .line   193; lena.c     inc_ahour(mod_amin);
0050 5000      02708         MOVF    r0x01, W
0052 6EE5      02709         MOVWF   POSTDEC1
0054 EC00 F000 02710         CALL    _inc_ahour
0058 2AE1      02711         INCF    FSR1L, F
005A 02712 _00136_DS_:
               02713 ;       .line   196; lena.c     amin = (amin + val) % 60;
005A C000 F000 02714         MOVFF   _amin, r0x01
005E 6A00      02715         CLRF    r0x02
0060 5000      02716         MOVF    r0x01, W
0062 2600      02717         ADDWF   r0x00, F
0064 5000      02718         MOVF    r0x02, W
0066 2200      02719         ADDWFC  r0x03, F
0068 0E00      02720         MOVLW   0x00
006A 6EE5      02721         MOVWF   POSTDEC1
006C 0E3C      02722         MOVLW   0x3c
006E 6EE5      02723         MOVWF   POSTDEC1
0070 5000      02724         MOVF    r0x03, W
0072 6EE5      02725         MOVWF   POSTDEC1
0074 5000      02726         MOVF    r0x00, W
0076 6EE5      02727         MOVWF   POSTDEC1
0078 EC00 F000 02728         CALL    __modsint
007C 6E00      02729         MOVWF   r0x00
007E CFF3 F000 02730         MOVFF   PRODL, r0x01
0082 0E04      02731         MOVLW   0x04
0084 26E1      02732         ADDWF   FSR1L, F
0086 5000      02733         MOVF    r0x00, W
0088 0000      02734         BANKSEL _amin
008A 6F00      02735         MOVWF   _amin, B
008C CFE4 F000 02736         MOVFF   PREINC1, r0x03
0090 CFE4 F000 02737         MOVFF   PREINC1, r0x02
0094 CFE4 F000 02738         MOVFF   PREINC1, r0x01
0098 CFE4 F000 02739         MOVFF   PREINC1, r0x00
009C CFE4 FFD9 02740         MOVFF   PREINC1, FSR2L
00A0 0012      02741         RETURN  
               02742 
               02743 ; ; Starting pCode block
               02744 S_lena__inc_ahour       code
0000 02745 _inc_ahour:
               02746 ;       .line   181; lena.c     void inc_ahour(BYTE val)
0000 CFD9 FFE5 02747         MOVFF   FSR2L, POSTDEC1
0004 CFE1 FFD9 02748         MOVFF   FSR1L, FSR2L
0008 C000 FFE5 02749         MOVFF   r0x00, POSTDEC1
000C C000 FFE5 02750         MOVFF   r0x01, POSTDEC1
0010 C000 FFE5 02751         MOVFF   r0x02, POSTDEC1
0014 C000 FFE5 02752         MOVFF   r0x03, POSTDEC1
0018 0E02      02753         MOVLW   0x02
001A CFDB F000 02754         MOVFF   PLUSW2, r0x00
gpasm-0.13.7 beta               Objects/lena.asm10-26-2013  15:30:39         PAGE 52


LOC  OBJECT CODE     LINE SOURCE TEXT
  VALUE
 
               02755 ;       .line   183; lena.c     ahour = (ahour + val) % 24;
001E C000 F000 02756         MOVFF   _ahour, r0x01
0022 6A00      02757         CLRF    r0x02
0024 6A00      02758         CLRF    r0x03
0026 5000      02759         MOVF    r0x00, W
0028 2600      02760         ADDWF   r0x01, F
002A 5000      02761         MOVF    r0x03, W
002C 2200      02762         ADDWFC  r0x02, F
002E 0E00      02763         MOVLW   0x00
0030 6EE5      02764         MOVWF   POSTDEC1
0032 0E18      02765         MOVLW   0x18
0034 6EE5      02766         MOVWF   POSTDEC1
0036 5000      02767         MOVF    r0x02, W
0038 6EE5      02768         MOVWF   POSTDEC1
003A 5000      02769         MOVF    r0x01, W
003C 6EE5      02770         MOVWF   POSTDEC1
003E EC00 F000 02771         CALL    __modsint
0042 6E00      02772         MOVWF   r0x00
0044 CFF3 F000 02773         MOVFF   PRODL, r0x01
0048 0E04      02774         MOVLW   0x04
004A 26E1      02775         ADDWF   FSR1L, F
004C 5000      02776         MOVF    r0x00, W
004E 0000      02777         BANKSEL _ahour
0050 6F00      02778         MOVWF   _ahour, B
0052 CFE4 F000 02779         MOVFF   PREINC1, r0x03
0056 CFE4 F000 02780         MOVFF   PREINC1, r0x02
005A CFE4 F000 02781         MOVFF   PREINC1, r0x01
005E CFE4 F000 02782         MOVFF   PREINC1, r0x00
0062 CFE4 FFD9 02783         MOVFF   PREINC1, FSR2L
0066 0012      02784         RETURN  
               02785 
               02786 ; ; Starting pCode block
               02787 S_lena__low_isr code
0000 02788 _low_isr:
               02789 ;       .line   115; lena.c     void low_isr (void) interrupt 2
0000 CFE8 FFE5 02790         MOVFF   WREG, POSTDEC1
0004 CFD8 FFE5 02791         MOVFF   STATUS, POSTDEC1
0008 CFE0 FFE5 02792         MOVFF   BSR, POSTDEC1
000C CFF3 FFE5 02793         MOVFF   PRODL, POSTDEC1
0010 CFF4 FFE5 02794         MOVFF   PRODH, POSTDEC1
0014 CFE9 FFE5 02795         MOVFF   FSR0L, POSTDEC1
0018 CFEA FFE5 02796         MOVFF   FSR0H, POSTDEC1
001C CFFA FFE5 02797         MOVFF   PCLATH, POSTDEC1
0020 CFFB FFE5 02798         MOVFF   PCLATU, POSTDEC1
0024 CFD9 FFE5 02799         MOVFF   FSR2L, POSTDEC1
0028 CFE1 FFD9 02800         MOVFF   FSR1L, FSR2L
               02801 ;       .line   118; lena.c     if(INTCON3bits.INT3F) {
002C A400      02802         BTFSS   _INTCON3bits, 2
002E D000      02803         BRA     _00115_DS_
               02804 ;       .line   119; lena.c     button1 = 1;
0030 0E01      02805         MOVLW   0x01
0032 0000      02806         BANKSEL _button1
0034 6F00      02807         MOVWF   _button1, B
               02808 ;       .line   120; lena.c     INTCON3bits.INT3F = 0;   //clear INT1 flag
gpasm-0.13.7 beta               Objects/lena.asm10-26-2013  15:30:39         PAGE 53


LOC  OBJECT CODE     LINE SOURCE TEXT
  VALUE
 
0036 9400      02809         BCF     _INTCON3bits, 2
0038 D000      02810         BRA     _00117_DS_
003A 02811 _00115_DS_:
               02812 ;       .line   123; lena.c     } else if(INTCON3bits.INT1F) {
003A A000      02813         BTFSS   _INTCON3bits, 0
003C D000      02814         BRA     _00117_DS_
               02815 ;       .line   124; lena.c     button2 = 1;
003E 0E01      02816         MOVLW   0x01
0040 0000      02817         BANKSEL _button2
0042 6F00      02818         MOVWF   _button2, B
               02819 ;       .line   125; lena.c     INTCON3bits.INT1F = 0;
0044 9000      02820         BCF     _INTCON3bits, 0
0046 02821 _00117_DS_:
0046 CFE4 FFD9 02822         MOVFF   PREINC1, FSR2L
004A CFE4 FFFB 02823         MOVFF   PREINC1, PCLATU
004E CFE4 FFFA 02824         MOVFF   PREINC1, PCLATH
0052 CFE4 FFEA 02825         MOVFF   PREINC1, FSR0H
0056 CFE4 FFE9 02826         MOVFF   PREINC1, FSR0L
005A CFE4 FFF4 02827         MOVFF   PREINC1, PRODH
005E CFE4 FFF3 02828         MOVFF   PREINC1, PRODL
0062 CFE4 FFE0 02829         MOVFF   PREINC1, BSR
0066 CFE4 FFD8 02830         MOVFF   PREINC1, STATUS
006A CFE4 FFE8 02831         MOVFF   PREINC1, WREG
006E 0010      02832         RETFIE  
               02833 
               02834 ; ; Starting pCode block
               02835 S_lena__high_isr        code
0000 02836 _high_isr:
               02837 ;       .line   104; lena.c     void high_isr (void) interrupt 1
0000 CFE8 FFE5 02838         MOVFF   WREG, POSTDEC1
0004 CFD8 FFE5 02839         MOVFF   STATUS, POSTDEC1
0008 CFE0 FFE5 02840         MOVFF   BSR, POSTDEC1
000C CFF3 FFE5 02841         MOVFF   PRODL, POSTDEC1
0010 CFF4 FFE5 02842         MOVFF   PRODH, POSTDEC1
0014 CFE9 FFE5 02843         MOVFF   FSR0L, POSTDEC1
0018 CFEA FFE5 02844         MOVFF   FSR0H, POSTDEC1
001C CFFA FFE5 02845         MOVFF   PCLATH, POSTDEC1
0020 CFFB FFE5 02846         MOVFF   PCLATU, POSTDEC1
0024 CFD9 FFE5 02847         MOVFF   FSR2L, POSTDEC1
0028 CFE1 FFD9 02848         MOVFF   FSR1L, FSR2L
               02849 ;       .line   107; lena.c     if (INTCONbits.T0IF) {
002C A400      02850         BTFSS   _INTCONbits, 2
002E D000      02851         BRA     _00107_DS_
0030 0000      02852         BANKSEL _overflows
               02853 ;       .line   108; lena.c     overflows++;
0032 2B00      02854         INCF    _overflows, F, B
0034 E300      02855         BNC     _10386_DS_
0036 0000      02856         BANKSEL (_overflows + 1)
0038 2B00      02857         INCF    (_overflows + 1), F, B
003A 02858 _10386_DS_:
003A E300      02859         BNC     _20387_DS_
003C 0000      02860         BANKSEL (_overflows + 2)
003E 2B00      02861         INCF    (_overflows + 2), F, B
0040 02862 _20387_DS_:
gpasm-0.13.7 beta               Objects/lena.asm10-26-2013  15:30:39         PAGE 54


LOC  OBJECT CODE     LINE SOURCE TEXT
  VALUE
 
0040 E300      02863         BNC     _30388_DS_
0042 0000      02864         BANKSEL (_overflows + 3)
0044 2B00      02865         INCF    (_overflows + 3), F, B
0046 02866 _30388_DS_:
               02867 ;       .line   109; lena.c     INTCONbits.T0IF = 0;
0046 9400      02868         BCF     _INTCONbits, 2
0048 02869 _00107_DS_:
0048 CFE4 FFD9 02870         MOVFF   PREINC1, FSR2L
004C CFE4 FFFB 02871         MOVFF   PREINC1, PCLATU
0050 CFE4 FFFA 02872         MOVFF   PREINC1, PCLATH
0054 CFE4 FFEA 02873         MOVFF   PREINC1, FSR0H
0058 CFE4 FFE9 02874         MOVFF   PREINC1, FSR0L
005C CFE4 FFF4 02875         MOVFF   PREINC1, PRODH
0060 CFE4 FFF3 02876         MOVFF   PREINC1, PRODL
0064 CFE4 FFE0 02877         MOVFF   PREINC1, BSR
0068 CFE4 FFD8 02878         MOVFF   PREINC1, STATUS
006C CFE4 FFE8 02879         MOVFF   PREINC1, WREG
0070 0010      02880         RETFIE  
               02881 
               02882 ; ; Starting pCode block
0072 02883 __str_0:
0072 6F44 7920 02884         DB      0x44, 0x6f, 0x20, 0x79, 0x6f, 0x75, 0x20, 0x77, 0x61, 0x6e, 0x74, 0x20
     756F 7720 
     6E61 2074 
007E 6F74 2020 02885         DB      0x74, 0x6f, 0x20, 0x20, 0x73, 0x65, 0x74, 0x20, 0x74, 0x68, 0x65, 0x20
     6573 2074 
     6874 2065 
008A 6974 656D 02886         DB      0x74, 0x69, 0x6d, 0x65, 0x20, 0x3f, 0x20, 0x20, 0x00
     3F20 2020 
     0000      
               02887 ; ; Starting pCode block
0094 02888 __str_1:
0094 5B20 3025 02889         DB      0x20, 0x5b, 0x25, 0x30, 0x32, 0x75, 0x5d, 0x3a, 0x20, 0x25, 0x30, 0x32
     7532 3A5D 
     2520 3230 
00A0 2075 203A 02890         DB      0x75, 0x20, 0x3a, 0x20, 0x25, 0x30, 0x32, 0x75, 0x20, 0x20, 0x20, 0x20
     3025 7532 
     2020 2020 
00AC 2020 2020 02891         DB      0x20, 0x20, 0x20, 0x20, 0x20, 0x20, 0x20, 0x20, 0x20, 0x20, 0x20, 0x20
     2020 2020 
     2020 2020 
00B8 2020 0000 02892         DB      0x20, 0x20, 0x00
               02893 ; ; Starting pCode block
00BC 02894 __str_2:
00BC 2020 3025 02895         DB      0x20, 0x20, 0x25, 0x30, 0x32, 0x75, 0x20, 0x3a, 0x5b, 0x25, 0x30, 0x32
     7532 3A20 
     255B 3230 
00C8 5D75 203A 02896         DB      0x75, 0x5d, 0x3a, 0x20, 0x25, 0x30, 0x32, 0x75, 0x20, 0x20, 0x20, 0x20
     3025 7532 
     2020 2020 
00D4 2020 2020 02897         DB      0x20, 0x20, 0x20, 0x20, 0x20, 0x20, 0x20, 0x20, 0x20, 0x20, 0x20, 0x20
     2020 2020 
     2020 2020 
00E0 2020 0000 02898         DB      0x20, 0x20, 0x00
gpasm-0.13.7 beta               Objects/lena.asm10-26-2013  15:30:39         PAGE 55


LOC  OBJECT CODE     LINE SOURCE TEXT
  VALUE
 
               02899 ; ; Starting pCode block
00E4 02900 __str_3:
00E4 2020 3025 02901         DB      0x20, 0x20, 0x25, 0x30, 0x32, 0x75, 0x20, 0x3a, 0x20, 0x25, 0x30, 0x32
     7532 3A20 
     2520 3230 
00F0 2075 5B3A 02902         DB      0x75, 0x20, 0x3a, 0x5b, 0x25, 0x30, 0x32, 0x75, 0x5d, 0x20, 0x20, 0x20
     3025 7532 
     205D 2020 
00FC 2020 2020 02903         DB      0x20, 0x20, 0x20, 0x20, 0x20, 0x20, 0x20, 0x20, 0x20, 0x20, 0x20, 0x20
     2020 2020 
     2020 2020 
0108 2020 0000 02904         DB      0x20, 0x20, 0x00
               02905 ; ; Starting pCode block
010C 02906 __str_4:
010C 6F44 7920 02907         DB      0x44, 0x6f, 0x20, 0x79, 0x6f, 0x75, 0x20, 0x77, 0x61, 0x6e, 0x74, 0x20
     756F 7720 
     6E61 2074 
0118 6F74 2020 02908         DB      0x74, 0x6f, 0x20, 0x20, 0x73, 0x65, 0x74, 0x20, 0x74, 0x68, 0x65, 0x20
     6573 2074 
     6874 2065 
0124 6C61 7261 02909         DB      0x61, 0x6c, 0x61, 0x72, 0x6d, 0x20, 0x3f, 0x20, 0x00
     206D 203F 
     0000      
               02910 ; ; Starting pCode block
012E 02911 __str_5:
012E 2020 6C41 02912         DB      0x20, 0x20, 0x41, 0x6c, 0x61, 0x72, 0x6d, 0x20, 0x5b, 0x4f, 0x4e, 0x20
     7261 206D 
     4F5B 204E 
013A 205D 2020 02913         DB      0x5d, 0x20, 0x20, 0x20, 0x20, 0x20, 0x20, 0x20, 0x20, 0x20, 0x20, 0x20
     2020 2020 
     2020 2020 
0146 2020 2020 02914         DB      0x20, 0x20, 0x20, 0x20, 0x20, 0x20, 0x20, 0x20, 0x00
     2020 2020 
     0000      
               02915 ; ; Starting pCode block
0150 02916 __str_6:
0150 2020 6C41 02917         DB      0x20, 0x20, 0x41, 0x6c, 0x61, 0x72, 0x6d, 0x20, 0x5b, 0x4f, 0x46, 0x46
     7261 206D 
     4F5B 4646 
015C 205D 2020 02918         DB      0x5d, 0x20, 0x20, 0x20, 0x20, 0x20, 0x20, 0x20, 0x20, 0x20, 0x20, 0x20
     2020 2020 
     2020 2020 
0168 2020 2020 02919         DB      0x20, 0x20, 0x20, 0x20, 0x20, 0x20, 0x20, 0x20, 0x00
     2020 2020 
     0000      
               02920 ; ; Starting pCode block
0172 02921 __str_7:
0172 2020 2020 02922         DB      0x20, 0x20, 0x20, 0x20, 0x41, 0x6c, 0x61, 0x72, 0x6d, 0x20, 0x61, 0x74
     6C41 7261 
     206D 7461 
017E 2020 2020 02923         DB      0x20, 0x20, 0x20, 0x20, 0x20, 0x20, 0x20, 0x20, 0x5b, 0x25, 0x30, 0x32
     2020 2020 
     255B 3230 
018A 5D75 203A 02924         DB      0x75, 0x5d, 0x3a, 0x20, 0x25, 0x30, 0x32, 0x75, 0x20, 0x20, 0x20, 0x20
gpasm-0.13.7 beta               Objects/lena.asm10-26-2013  15:30:39         PAGE 56


LOC  OBJECT CODE     LINE SOURCE TEXT
  VALUE
 
     3025 7532 
     2020 2020 
0196 0000      02925         DB      0x00
               02926 ; ; Starting pCode block
0198 02927 __str_8:
0198 2020 2020 02928         DB      0x20, 0x20, 0x20, 0x20, 0x41, 0x6c, 0x61, 0x72, 0x6d, 0x20, 0x61, 0x74
     6C41 7261 
     206D 7461 
01A4 2020 2020 02929         DB      0x20, 0x20, 0x20, 0x20, 0x20, 0x20, 0x20, 0x20, 0x20, 0x25, 0x30, 0x32
     2020 2020 
     2520 3230 
01B0 2075 5B3A 02930         DB      0x75, 0x20, 0x3a, 0x5b, 0x25, 0x30, 0x32, 0x75, 0x5d, 0x20, 0x20, 0x20
     3025 7532 
     205D 2020 
01BC 0000      02931         DB      0x00
               02932 ; ; Starting pCode block
01BE 02933 __str_9:
01BE 2020 2020 02934         DB      0x20, 0x20, 0x20, 0x20, 0x25, 0x30, 0x32, 0x75, 0x3a, 0x25, 0x30, 0x32
     3025 7532 
     253A 3230 
01CA 3A75 3025 02935         DB      0x75, 0x3a, 0x25, 0x30, 0x32, 0x75, 0x20, 0x20, 0x20, 0x20, 0x41, 0x6c
     7532 2020 
     2020 6C41 
01D6 7261 206D 02936         DB      0x61, 0x72, 0x6d, 0x20, 0x4f, 0x4e, 0x20, 0x20, 0x25, 0x30, 0x32, 0x75
     4E4F 2020 
     3025 7532 
01E2 253A 3230 02937         DB      0x3a, 0x25, 0x30, 0x32, 0x75, 0x20, 0x00
     2075 0000 
               02938 ; ; Starting pCode block
01EA 02939 __str_10:
01EA 2020 2020 02940         DB      0x20, 0x20, 0x20, 0x20, 0x25, 0x30, 0x32, 0x75, 0x3a, 0x25, 0x30, 0x32
     3025 7532 
     253A 3230 
01F6 3A75 3025 02941         DB      0x75, 0x3a, 0x25, 0x30, 0x32, 0x75, 0x20, 0x20, 0x20, 0x20, 0x20, 0x20
     7532 2020 
     2020 2020 
0202 4120 616C 02942         DB      0x20, 0x41, 0x6c, 0x61, 0x72, 0x6d, 0x20, 0x20, 0x4f, 0x46, 0x46, 0x20
     6D72 2020 
     464F 2046 
020E 2020 0000 02943         DB      0x20, 0x20, 0x00
               02944 ; ; Starting pCode block
0212 02945 __str_11:
0212 2020 2020 02946         DB      0x20, 0x20, 0x20, 0x20, 0x25, 0x30, 0x32, 0x75, 0x3a, 0x25, 0x30, 0x32
     3025 7532 
     253A 3230 
021E 3A75 3025 02947         DB      0x75, 0x3a, 0x25, 0x30, 0x32, 0x75, 0x20, 0x20, 0x20, 0x20, 0x20, 0x20
     7532 2020 
     2020 2020 
022A 2049 6D61 02948         DB      0x49, 0x20, 0x61, 0x6d, 0x20, 0x72, 0x69, 0x6e, 0x67, 0x69, 0x6e, 0x67
     7220 6E69 
     6967 676E 
0236 2021 0000 02949         DB      0x21, 0x20, 0x00
               02950 ; ; Starting pCode block
023A 02951 __str_12:
gpasm-0.13.7 beta               Objects/lena.asm10-26-2013  15:30:39         PAGE 57


LOC  OBJECT CODE     LINE SOURCE TEXT
  VALUE
 
023A 2020 2020 02952         DB      0x20, 0x20, 0x20, 0x20, 0x25, 0x30, 0x32, 0x75, 0x3a, 0x25, 0x30, 0x32
     3025 7532 
     253A 3230 
0246 3A75 3025 02953         DB      0x75, 0x3a, 0x25, 0x30, 0x32, 0x75, 0x20, 0x20, 0x20, 0x20, 0x53, 0x6e
     7532 2020 
     2020 6E53 
0252 6F6F 657A 02954         DB      0x6f, 0x6f, 0x7a, 0x65, 0x20, 0x25, 0x75, 0x20, 0x20, 0x25, 0x30, 0x32
     2520 2075 
     2520 3230 
025E 3A75 3025 02955         DB      0x75, 0x3a, 0x25, 0x30, 0x32, 0x75, 0x20, 0x00
     7532 0020 
               02956 ; ; Starting pCode block
0266 02957 __str_13:
0266 2020 2020 02958         DB      0x20, 0x20, 0x20, 0x20, 0x25, 0x30, 0x32, 0x75, 0x3a, 0x25, 0x30, 0x32
     3025 7532 
     253A 3230 
0272 3A75 3025 02959         DB      0x75, 0x3a, 0x25, 0x30, 0x32, 0x75, 0x20, 0x20, 0x20, 0x20, 0x53, 0x6e
     7532 2020 
     2020 6E53 
027E 6F6F 657A 02960         DB      0x6f, 0x6f, 0x7a, 0x65, 0x20, 0x25, 0x75, 0x20, 0x25, 0x30, 0x32, 0x75
     2520 2075 
     3025 7532 
028A 253A 3230 02961         DB      0x3a, 0x25, 0x30, 0x32, 0x75, 0x20, 0x00
     2075 0000 
               02962 ; ; Starting pCode block
0292 02963 __str_14:
0292 2A2A 2A2A 02964         DB      0x2a, 0x2a, 0x2a, 0x2a, 0x20, 0x45, 0x52, 0x52, 0x4f, 0x52, 0x20, 0x2a
     4520 5252 
     524F 2A20 
029E 2A2A 2A2A 02965         DB      0x2a, 0x2a, 0x2a, 0x2a, 0x2a, 0x2a, 0x2a, 0x2a, 0x20, 0x45, 0x52, 0x52
     2A2A 2A2A 
     4520 5252 
02AA 524F 2A20 02966         DB      0x4f, 0x52, 0x20, 0x2a, 0x2a, 0x2a, 0x2a, 0x2a, 0x00
     2A2A 2A2A 
     0000      
               02967 
               02968 
               02969 ; Statistics:
               02970 ; code size:     4786 (0x12b2) bytes ( 3.65%)
               02971 ;                2393 (0x0959) words
               02972 ; udata size:      45 (0x002d) bytes ( 1.17%)
               02973 ; access size:     22 (0x0016) bytes
               02974 
               02975 
gpasm-0.13.7 beta               Objects/lena.asm10-26-2013  15:30:39         PAGE 58


SYMBOL TABLE
  LABEL                             VALUE 

BSR                               00000FE0
FSR0H                             00000FEA
FSR0L                             00000FE9
FSR1L                             00000FE1
FSR2L                             00000FD9
PCL                               00000FF9
PCLATH                            00000FFA
PCLATU                            00000FFB
PLUSW2                            00000FDB
POSTDEC1                          00000FE5
PREINC1                           00000FE4
PRODH                             00000FF4
PRODL                             00000FF3
STATUS                            00000FD8
WREG                              00000FE8
_00107_DS_                        00000048
_00115_DS_                        0000003A
_00117_DS_                        00000046
_00123_DS_                        00000044
_00136_DS_                        0000005A
_00143_DS_                        00000030
_00145_DS_                        00000036
_00154_DS_                        0000003A
_00156_DS_                        00000040
_00165_DS_                        0000036C
_00167_DS_                        00000372
_00170_DS_                        000003DE
_00172_DS_                        000003E2
_00175_DS_                        000003F0
_00177_DS_                        000003FE
_00179_DS_                        0000040C
_00180_DS_                        0000048C
_00181_DS_                        000004BC
_00182_DS_                        00000516
_00183_DS_                        0000056E
_00184_DS_                        000005C6
_00185_DS_                        000005F4
_00187_DS_                        00000628
_00189_DS_                        00000656
_00190_DS_                        000006A0
_00191_DS_                        000006EA
_00193_DS_                        00000764
_00195_DS_                        000007BC
_00196_DS_                        00000814
_00198_DS_                        000008A0
_00200_DS_                        00000922
_00201_DS_                        0000094E
_00218_DS_                        00000314
_00224_DS_                        00000386
_00238_DS_                        00000460
_00244_DS_                        00000044
_00250_DS_                        00000076
_00255_DS_                        0000004C
gpasm-0.13.7 beta               Objects/lena.asm10-26-2013  15:30:39         PAGE 59


LOC  OBJECT CODE     LINE SOURCE TEXT
  VALUE
 
_00262_DS_                        00000084
_00274_DS_                        00000014
_00276_DS_                        00000020
_00279_DS_                        0000003C
_00289_DS_                        00000090
_00290_DS_                        00000098
_00291_DS_                        000000A0
_00292_DS_                        000000A8
_00293_DS_                        000000B0
_00294_DS_                        000000B8
_00295_DS_                        000000C0
_00296_DS_                        000000C8
_00297_DS_                        000000D0
_00298_DS_                        000000D8
_00299_DS_                        000000EA
_00301_DS_                        00000104
_00302_DS_                        0000018E
_00303_DS_                        00000196
_00306_DS_                        000001AA
_00308_DS_                        000001B8
_00310_DS_                        000001BE
_00312_DS_                        000001CC
_00314_DS_                        000001D2
_00315_DS_                        000001DA
_00316_DS_                        000001E2
_00318_DS_                        000001F0
_00319_DS_                        000001F4
_00320_DS_                        000001FA
_00322_DS_                        00000208
_00323_DS_                        0000020C
_00324_DS_                        00000212
_00325_DS_                        00000214
_00328_DS_                        00000236
_00332_DS_                        0000024C
_00336_DS_                        0000010A
_00338_DS_                        00000250
_00355_DS_                        00000064
_00358_DS_                        00000162
_00360_DS_                        000001A4
_00362_DS_                        000001B2
_00364_DS_                        000001C6
_00367_DS_                        000001EA
_00369_DS_                        00000202
_00379_DS_                        00000082
_00388_DS_                        000000CC
_00392_DS_                        00000134
_00395_DS_                        0000015E
_00399_DS_                        00000188
_00406_DS_                        00000152
_00407_DS_                        00000114
_10386_DS_                        0000003A
_20387_DS_                        00000040
_30388_DS_                        00000046
_ADCON0                           00000000
gpasm-0.13.7 beta               Objects/lena.asm10-26-2013  15:30:39         PAGE 60


LOC  OBJECT CODE     LINE SOURCE TEXT
  VALUE
 
_ADCON0bits                       00000000
_ADCON1                           00000000
_ADCON1bits                       00000000
_ADCON2                           00000000
_ADCON2bits                       00000000
_ADRES                            00000000
_ADRESH                           00000000
_ADRESL                           00000000
_BAUDCON                          00000000
_BAUDCON1                         00000000
_BAUDCON1bits                     00000000
_BAUDCON2                         00000000
_BAUDCON2bits                     00000000
_BAUDCONbits                      00000000
_BAUDCTL                          00000000
_BAUDCTL1                         00000000
_BAUDCTL1bits                     00000000
_BAUDCTL2                         00000000
_BAUDCTL2bits                     00000000
_BAUDCTLbits                      00000000
_BSR                              00000000
_CCP1CON                          00000000
_CCP1CONbits                      00000000
_CCP2CON                          00000000
_CCP2CONbits                      00000000
_CCP3CON                          00000000
_CCP3CONbits                      00000000
_CCP4CON                          00000000
_CCP4CONbits                      00000000
_CCP5CON                          00000000
_CCP5CONbits                      00000000
_CCPR1                            00000000
_CCPR1H                           00000000
_CCPR1L                           00000000
_CCPR2                            00000000
_CCPR2H                           00000000
_CCPR2L                           00000000
_CCPR3                            00000000
_CCPR3H                           00000000
_CCPR3L                           00000000
_CCPR4                            00000000
_CCPR4H                           00000000
_CCPR4L                           00000000
_CCPR5                            00000000
_CCPR5H                           00000000
_CCPR5L                           00000000
_CMCON                            00000000
_CMCONbits                        00000000
_CVRCON                           00000000
_CVRCONbits                       00000000
_DDRA                             00000000
_DDRAbits                         00000000
_DDRB                             00000000
_DDRBbits                         00000000
gpasm-0.13.7 beta               Objects/lena.asm10-26-2013  15:30:39         PAGE 61


LOC  OBJECT CODE     LINE SOURCE TEXT
  VALUE
 
_DDRC                             00000000
_DDRCbits                         00000000
_DDRD                             00000000
_DDRDbits                         00000000
_DDRE                             00000000
_DDREbits                         00000000
_DDRF                             00000000
_DDRFbits                         00000000
_DDRG                             00000000
_DDRGbits                         00000000
_DDRH                             00000000
_DDRHbits                         00000000
_DDRJ                             00000000
_DDRJbits                         00000000
_DisplayString                    00000000
_EBSTCON                          00000000
_EBSTCONbits                      00000000
_EBSTCS                           00000000
_EBSTCSH                          00000000
_EBSTCSL                          00000000
_EBSTSD                           00000000
_ECCP1AS                          00000000
_ECCP1ASbits                      00000000
_ECCP1CON                         00000000
_ECCP1CONbits                     00000000
_ECCP1DEL                         00000000
_ECCP1DELbits                     00000000
_ECCP2AS                          00000000
_ECCP2ASbits                      00000000
_ECCP2CON                         00000000
_ECCP2CONbits                     00000000
_ECCP2DEL                         00000000
_ECCP2DELbits                     00000000
_ECCP3AS                          00000000
_ECCP3ASbits                      00000000
_ECCP3CON                         00000000
_ECCP3CONbits                     00000000
_ECCP3DEL                         00000000
_ECCP3DELbits                     00000000
_ECON1                            00000000
_ECON1bits                        00000000
_ECON2                            00000000
_ECON2bits                        00000000
_EDATA                            00000000
_EDATAbits                        00000000
_EDMACS                           00000000
_EDMACSH                          00000000
_EDMACSL                          00000000
_EDMADST                          00000000
_EDMADSTH                         00000000
_EDMADSTL                         00000000
_EDMAND                           00000000
_EDMANDH                          00000000
_EDMANDL                          00000000
gpasm-0.13.7 beta               Objects/lena.asm10-26-2013  15:30:39         PAGE 62


LOC  OBJECT CODE     LINE SOURCE TEXT
  VALUE
 
_EDMAST                           00000000
_EDMASTH                          00000000
_EDMASTL                          00000000
_EECON1                           00000000
_EECON1bits                       00000000
_EECON2                           00000000
_EFLOCON                          00000000
_EFLOCONbits                      00000000
_EHT0                             00000000
_EHT1                             00000000
_EHT2                             00000000
_EHT3                             00000000
_EHT4                             00000000
_EHT5                             00000000
_EHT6                             00000000
_EHT7                             00000000
_EIE                              00000000
_EIEbits                          00000000
_EIR                              00000000
_EIRbits                          00000000
_EPAUS                            00000000
_EPAUSH                           00000000
_EPAUSL                           00000000
_EPKTCNT                          00000000
_EPMCS                            00000000
_EPMCSH                           00000000
_EPMCSL                           00000000
_EPMM0                            00000000
_EPMM1                            00000000
_EPMM2                            00000000
_EPMM3                            00000000
_EPMM4                            00000000
_EPMM5                            00000000
_EPMM6                            00000000
_EPMM7                            00000000
_EPMO                             00000000
_EPMOH                            00000000
_EPMOL                            00000000
_ERDPT                            00000000
_ERDPTH                           00000000
_ERDPTL                           00000000
_ERXFCON                          00000000
_ERXFCONbits                      00000000
_ERXND                            00000000
_ERXNDH                           00000000
_ERXNDL                           00000000
_ERXRDPT                          00000000
_ERXRDPTH                         00000000
_ERXRDPTL                         00000000
_ERXST                            00000000
_ERXSTH                           00000000
_ERXSTL                           00000000
_ERXWRPT                          00000000
_ERXWRPTH                         00000000
gpasm-0.13.7 beta               Objects/lena.asm10-26-2013  15:30:39         PAGE 63


LOC  OBJECT CODE     LINE SOURCE TEXT
  VALUE
 
_ERXWRPTL                         00000000
_ESTAT                            00000000
_ESTATbits                        00000000
_ETXND                            00000000
_ETXNDH                           00000000
_ETXNDL                           00000000
_ETXST                            00000000
_ETXSTH                           00000000
_ETXSTL                           00000000
_EWOLIE                           00000000
_EWOLIEbits                       00000000
_EWOLIR                           00000000
_EWOLIRbits                       00000000
_EWRPT                            00000000
_EWRPTH                           00000000
_EWRPTL                           00000000
_FSR0H                            00000000
_FSR0L                            00000000
_FSR1H                            00000000
_FSR1L                            00000000
_FSR2H                            00000000
_FSR2L                            00000000
_INDF0                            00000000
_INDF1                            00000000
_INDF2                            00000000
_INTCON                           00000000
_INTCON2                          00000000
_INTCON2bits                      00000000
_INTCON3                          00000000
_INTCON3bits                      00000000
_INTCONbits                       00000000
_IPR1                             00000000
_IPR1bits                         00000000
_IPR2                             00000000
_IPR2bits                         00000000
_IPR3                             00000000
_IPR3bits                         00000000
_LATA                             00000000
_LATAbits                         00000000
_LATB                             00000000
_LATBbits                         00000000
_LATC                             00000000
_LATCbits                         00000000
_LATD                             00000000
_LATDbits                         00000000
_LATE                             00000000
_LATEbits                         00000000
_LATF                             00000000
_LATFbits                         00000000
_LATG                             00000000
_LATGbits                         00000000
_LATH                             00000000
_LATHbits                         00000000
_LATJ                             00000000
gpasm-0.13.7 beta               Objects/lena.asm10-26-2013  15:30:39         PAGE 64


LOC  OBJECT CODE     LINE SOURCE TEXT
  VALUE
 
_LATJbits                         00000000
_LCDInit                          00000000
_LCDText                          00000000
_LCDUpdate                        00000000
_MAADR1                           00000000
_MAADR2                           00000000
_MAADR3                           00000000
_MAADR4                           00000000
_MAADR5                           00000000
_MAADR6                           00000000
_MABBIPG                          00000000
_MACLCON1                         00000000
_MACLCON1bits                     00000000
_MACLCON2                         00000000
_MACLCON2bits                     00000000
_MACON1                           00000000
_MACON1bits                       00000000
_MACON2                           00000000
_MACON2bits                       00000000
_MACON3                           00000000
_MACON3bits                       00000000
_MACON4                           00000000
_MACON4bits                       00000000
_MAIPG                            00000000
_MAIPGH                           00000000
_MAIPGL                           00000000
_MAMXFL                           00000000
_MAMXFLH                          00000000
_MAMXFLL                          00000000
_MEMCON                           00000000
_MEMCONbits                       00000000
_MICMD                            00000000
_MICMDbits                        00000000
_MICON                            00000000
_MICONbits                        00000000
_MIRD                             00000000
_MIRDH                            00000000
_MIRDL                            00000000
_MIREGADR                         00000000
_MISTAT                           00000000
_MISTATbits                       00000000
_MIWR                             00000000
_MIWRH                            00000000
_MIWRL                            00000000
_OSCCON                           00000000
_OSCCONbits                       00000000
_OSCTUNE                          00000000
_OSCTUNEbits                      00000000
_PC                               00000000
_PCL                              00000000
_PCLATH                           00000000
_PCLATU                           00000000
_PIE1                             00000000
_PIE1bits                         00000000
gpasm-0.13.7 beta               Objects/lena.asm10-26-2013  15:30:39         PAGE 65


LOC  OBJECT CODE     LINE SOURCE TEXT
  VALUE
 
_PIE2                             00000000
_PIE2bits                         00000000
_PIE3                             00000000
_PIE3bits                         00000000
_PIR1                             00000000
_PIR1bits                         00000000
_PIR2                             00000000
_PIR2bits                         00000000
_PIR3                             00000000
_PIR3bits                         00000000
_PLUSW0                           00000000
_PLUSW1                           00000000
_PLUSW2                           00000000
_PORTA                            00000000
_PORTAbits                        00000000
_PORTB                            00000000
_PORTBbits                        00000000
_PORTC                            00000000
_PORTCbits                        00000000
_PORTD                            00000000
_PORTDbits                        00000000
_PORTE                            00000000
_PORTEbits                        00000000
_PORTF                            00000000
_PORTFbits                        00000000
_PORTG                            00000000
_PORTGbits                        00000000
_PORTH                            00000000
_PORTHbits                        00000000
_PORTJ                            00000000
_PORTJbits                        00000000
_POSTDEC0                         00000000
_POSTDEC1                         00000000
_POSTDEC2                         00000000
_POSTINC0                         00000000
_POSTINC1                         00000000
_POSTINC2                         00000000
_PR2                              00000000
_PR4                              00000000
_PREINC0                          00000000
_PREINC1                          00000000
_PREINC2                          00000000
_PROD                             00000000
_PRODH                            00000000
_PRODL                            00000000
_PSPCON                           00000000
_PSPCONbits                       00000000
_RCON                             00000000
_RCONbits                         00000000
_RCREG                            00000000
_RCREG1                           00000000
_RCREG2                           00000000
_RCSTA                            00000000
_RCSTA1                           00000000
gpasm-0.13.7 beta               Objects/lena.asm10-26-2013  15:30:39         PAGE 66


LOC  OBJECT CODE     LINE SOURCE TEXT
  VALUE
 
_RCSTA1bits                       00000000
_RCSTA2                           00000000
_RCSTA2bits                       00000000
_RCSTAbits                        00000000
_SPBRG                            00000000
_SPBRG1                           00000000
_SPBRG2                           00000000
_SPBRGH                           00000000
_SPBRGH1                          00000000
_SPBRGH2                          00000000
_SSP1ADD                          00000000
_SSP1BUF                          00000000
_SSP1CON1                         00000000
_SSP1CON1bits                     00000000
_SSP1CON2                         00000000
_SSP1CON2bits                     00000000
_SSP1STAT                         00000000
_SSP1STATbits                     00000000
_SSP2ADD                          00000000
_SSP2BUF                          00000000
_SSP2CON1                         00000000
_SSP2CON1bits                     00000000
_SSP2CON2                         00000000
_SSP2CON2bits                     00000000
_SSP2STAT                         00000000
_SSP2STATbits                     00000000
_SSPADD                           00000000
_SSPBUF                           00000000
_SSPCON1                          00000000
_SSPCON1bits                      00000000
_SSPCON2                          00000000
_SSPCON2bits                      00000000
_SSPSTAT                          00000000
_SSPSTATbits                      00000000
_STATUS                           00000000
_STATUSbits                       00000000
_STKPTR                           00000000
_STKPTRbits                       00000000
_T0CON                            00000000
_T0CONbits                        00000000
_T1CON                            00000000
_T1CONbits                        00000000
_T2CON                            00000000
_T2CONbits                        00000000
_T3CON                            00000000
_T3CONbits                        00000000
_T4CON                            00000000
_T4CONbits                        00000000
_TABLAT                           00000000
_TBLPTR                           00000000
_TBLPTRH                          00000000
_TBLPTRL                          00000000
_TBLPTRU                          00000000
_TMR0H                            00000000
gpasm-0.13.7 beta               Objects/lena.asm10-26-2013  15:30:39         PAGE 67


LOC  OBJECT CODE     LINE SOURCE TEXT
  VALUE
 
_TMR0L                            00000000
_TMR1H                            00000000
_TMR1L                            00000000
_TMR2                             00000000
_TMR3H                            00000000
_TMR3L                            00000000
_TMR4                             00000000
_TOS                              00000000
_TOSH                             00000000
_TOSL                             00000000
_TOSU                             00000000
_TRISA                            00000000
_TRISAbits                        00000000
_TRISB                            00000000
_TRISBbits                        00000000
_TRISC                            00000000
_TRISCbits                        00000000
_TRISD                            00000000
_TRISDbits                        00000000
_TRISE                            00000000
_TRISEbits                        00000000
_TRISF                            00000000
_TRISFbits                        00000000
_TRISG                            00000000
_TRISGbits                        00000000
_TRISH                            00000000
_TRISHbits                        00000000
_TRISJ                            00000000
_TRISJbits                        00000000
_TXREG                            00000000
_TXREG1                           00000000
_TXREG2                           00000000
_TXSTA                            00000000
_TXSTA1                           00000000
_TXSTA1bits                       00000000
_TXSTA2                           00000000
_TXSTA2bits                       00000000
_TXSTAbits                        00000000
_WDTCON                           00000000
_WDTCONbits                       00000000
_WREG                             00000000
__18F97J60                        00000001
___fs2ulong                       00000000
___fsdiv                          00000000
___ulong2fs                       00000000
__divsint                         00000000
__divulong                        00000000
__gptrget1                        00000000
__gptrput1                        00000000
__modsint                         00000000
__modulong                        00000000
__mullong                         00000000
__str_0                           00000072
__str_1                           00000094
gpasm-0.13.7 beta               Objects/lena.asm10-26-2013  15:30:39         PAGE 68


LOC  OBJECT CODE     LINE SOURCE TEXT
  VALUE
 
__str_10                          000001EA
__str_11                          00000212
__str_12                          0000023A
__str_13                          00000266
__str_14                          00000292
__str_2                           000000BC
__str_3                           000000E4
__str_4                           0000010C
__str_5                           0000012E
__str_6                           00000150
__str_7                           00000172
__str_8                           00000198
__str_9                           000001BE
_ahour                            00000008
_ahour_o                          0000000A
_alarm                            00000000
_alarm_set                        0000000C
_amin                             00000009
_amin_o                           0000000B
_button                           00000000
_button1                          00000011
_button2                          00000012
_chandelle                        00000000
_dec_ahour                        00000000
_dec_amin                         00000000
_decisec                          00000000
_display                          00000000
_ds                               00000000
_h                                00000000
_high_isr                         00000000
_inc_ahour                        00000000
_inc_amin                         00000000
_low_isr                          00000000
_m                                00000000
_main                             00000000
_on                               00000010
_overflows                        00000001
_refresh_lcd                      00000000
_s                                00000000
_sec                              00000000
_snooze                           0000000D
_sprintf                          00000000
_stdin                            00000000
_stdout                           00000000
_stop_ringing                     0000000E
_strlcpy                          00000000
_strlen                           00000000
_thour                            00000005
_tmin                             00000006
_tsec                             00000007
_whereami                         0000000F
ivec_0x1_high_isr                 00000008
ivec_0x2_low_isr                  00000018
r0x00                             00000000
gpasm-0.13.7 beta               Objects/lena.asm10-26-2013  15:30:39         PAGE 69


LOC  OBJECT CODE     LINE SOURCE TEXT
  VALUE
 
r0x01                             00000001
r0x02                             00000002
r0x03                             00000003
r0x04                             00000004
r0x05                             00000005
r0x06                             00000006
r0x07                             00000007
r0x08                             00000008
r0x09                             00000009
r0x0a                             0000000A
r0x0b                             0000000B
r0x0c                             0000000C
r0x0d                             0000000D
r0x0e                             0000000E
r0x0f                             0000000F
r0x10                             00000010
r0x11                             00000011
r0x12                             00000012
r0x13                             00000013
r0x14                             00000014
r0x15                             00000015


Errors   :       0
Warnings :       0 reported,       0 suppressed
Messages :       0 reported,       0 suppressed

